Component: ARM Compiler 5.06 update 4 (build 422) Tool: armlink [4d35d2]

==============================================================================

Section Cross References

    startup_stm32f2xx.o(RESET) refers to startup_stm32f2xx.o(STACK) for __initial_sp
    startup_stm32f2xx.o(RESET) refers to startup_stm32f2xx.o(.text) for Reset_Handler
    startup_stm32f2xx.o(RESET) refers to stm32f2xx_it.o(.text) for NMI_Handler
    startup_stm32f2xx.o(RESET) refers to port.o(.emb_text) for SVC_Handler
    startup_stm32f2xx.o(RESET) refers to port.o(.text) for SysTick_Handler
    startup_stm32f2xx.o(RESET) refers to ext_int_driver.o(.text) for EXTI15_10_IRQHandler
    startup_stm32f2xx.o(RESET) refers to stm32f2x7_eth.o(.text) for ETH_IRQHandler
    startup_stm32f2xx.o(.text) refers to system_stm32f2xx.o(.text) for SystemInit
    startup_stm32f2xx.o(.text) refers to __main.o(!!!main) for __main
    system_stm32f2xx.o(.text) refers to system_stm32f2xx.o(.data) for SystemCoreClock
    retarget.o(.text) refers (Special) to use_no_semi.o(.text) for __use_no_semihosting_swi
    retarget.o(.text) refers to debug.o(.text) for fputc
    retarget.o(.text) refers to retarget.o(.data) for __stdout
    retarget.o(.data) refers (Special) to use_no_semi.o(.text) for __use_no_semihosting_swi
    main.o(.text) refers to _printf_pad.o(.text) for _printf_pre_padding
    main.o(.text) refers to _printf_percent.o(.ARM.Collect$$_printf_percent$$00000000) for _printf_percent
    main.o(.text) refers to _printf_s.o(.ARM.Collect$$_printf_percent$$00000014) for _printf_s
    main.o(.text) refers to _printf_str.o(.text) for _printf_str
    main.o(.text) refers to _printf_d.o(.ARM.Collect$$_printf_percent$$00000009) for _printf_d
    main.o(.text) refers to _printf_dec.o(.text) for _printf_int_dec
    main.o(.text) refers to _printf_u.o(.ARM.Collect$$_printf_percent$$0000000A) for _printf_u
    main.o(.text) refers to stm322xg_eval_lcd.o(.text) for LCD_DisplayChar
    main.o(.text) refers to stm32f2xx_rcc.o(.text) for RCC_AHB1PeriphClockCmd
    main.o(.text) refers to stm32f2xx_gpio.o(.text) for GPIO_Init
    main.o(.text) refers to stm32f2xx_adc.o(.text) for ADC_CommonInit
    main.o(.text) refers to __2printf.o(.text) for __2printf
    main.o(.text) refers to ipv4.o(.text) for ipv4GetHostAddr
    main.o(.text) refers to ipv6.o(.text) for ipv6GetLinkLocalAddr
    main.o(.text) refers to stm322xg_eval_ioe.o(.text) for IOE_JoyStickGetState
    main.o(.text) refers to lis302dl.o(.text) for lis302dlGetAcc
    main.o(.text) refers to os_port_freertos.o(.text) for osDelayTask
    main.o(.text) refers to stm322xg_eval.o(.text) for STM_EVAL_LEDOn
    main.o(.text) refers to strcasecmp.o(.text) for strcasecmp
    main.o(.text) refers to __2sprintf.o(.text) for __2sprintf
    main.o(.text) refers to mime.o(.text) for mimeGetType
    main.o(.text) refers to http_server.o(.text) for httpWriteHeader
    main.o(.text) refers to rt_memclr_w.o(.text) for __aeabi_memclr4
    main.o(.text) refers to http_server_misc.o(.text) for httpDecodePercentEncodedString
    main.o(.text) refers to strchr.o(.text) for strchr
    main.o(.text) refers to str.o(.text) for strTrimWhitespace
    main.o(.text) refers to atoi.o(.text) for atoi
    main.o(.text) refers to main.o(.data) for lcdLine
    main.o(.text) refers to net.o(.bss) for netInterface
    main.o(.text) refers to yarrow.o(.constdata) for yarrowPrngAlgo
    main.o(.text) refers to main.o(.bss) for yarrowContext
    main.o(.text) refers to strtok_r.o(.text) for strtok_r
    main.o(.text) refers to smtp_client.o(.text) for smtpSendMail
    main.o(.text) refers to strcpy.o(.text) for strcpy
    main.o(.text) refers to date_time.o(.text) for formatSystemTime
    main.o(.text) refers to net.o(.text) for netGetMacAddr
    main.o(.text) refers to ethernet.o(.text) for macAddrToString
    main.o(.text) refers to strlen.o(.text) for strlen
    main.o(.text) refers to path.o(.text) for pathMatch
    main.o(.text) refers to strcmpv7m.o(.text) for strcmp
    main.o(.text) refers to http_server_auth.o(.text) for httpCheckPassword
    main.o(.text) refers to debug.o(.text) for debugInit
    main.o(.text) refers to __2fprintf.o(.text) for __2fprintf
    main.o(.text) refers to stm32f2xx_rng.o(.text) for RNG_Cmd
    main.o(.text) refers to yarrow.o(.text) for yarrowInit
    main.o(.text) refers to dhcp_client.o(.text) for dhcpClientGetDefaultSettings
    main.o(.text) refers to slaac.o(.text) for slaacGetDefaultSettings
    main.o(.text) refers to retarget.o(.data) for __stderr
    main.o(.text) refers to stm322xg_eval_lcd.o(.data) for Font16x24
    main.o(.text) refers to stm32f2x7_eth.o(.constdata) for stm32f2x7EthDriver
    main.o(.text) refers to dp83848.o(.constdata) for dp83848PhyDriver
    main.o(.text) refers to ext_int_driver.o(.constdata) for extIntDriver
    debug.o(.text) refers to _printf_percent.o(.ARM.Collect$$_printf_percent$$00000000) for _printf_percent
    debug.o(.text) refers to _printf_s.o(.ARM.Collect$$_printf_percent$$00000014) for _printf_s
    debug.o(.text) refers to _printf_str.o(.text) for _printf_str
    debug.o(.text) refers to _printf_pad.o(.text) for _printf_pre_padding
    debug.o(.text) refers to _printf_x.o(.ARM.Collect$$_printf_percent$$0000000C) for _printf_x
    debug.o(.text) refers to _printf_hex_int.o(.text) for _printf_longlong_hex
    debug.o(.text) refers to stm32f2xx_rcc.o(.text) for RCC_AHB1PeriphClockCmd
    debug.o(.text) refers to stm32f2xx_gpio.o(.text) for GPIO_Init
    debug.o(.text) refers to stm32f2xx_usart.o(.text) for USART_Init
    debug.o(.text) refers to __2fprintf.o(.text) for __2fprintf
    debug.o(.text) refers to main.o(.text) for lcdPutChar
    debug.o(.text) refers to retarget.o(.data) for __stdout
    lis302dl.o(.text) refers to stm322xg_eval_ioe.o(.text) for I2C_WriteDeviceRegister
    lis302dl.o(.text) refers to os_port_freertos.o(.text) for osSuspendAllTasks
    lis302dl.o(.text) refers to __2fprintf.o(.text) for __2fprintf
    lis302dl.o(.text) refers to retarget.o(.data) for __stderr
    ext_int_driver.o(.text) refers to stm32f2xx_rcc.o(.text) for RCC_AHB1PeriphClockCmd
    ext_int_driver.o(.text) refers to stm32f2xx_gpio.o(.text) for GPIO_Init
    ext_int_driver.o(.text) refers to stm32f2xx_syscfg.o(.text) for SYSCFG_EXTILineConfig
    ext_int_driver.o(.text) refers to stm32f2xx_exti.o(.text) for EXTI_Init
    ext_int_driver.o(.text) refers to os_port_freertos.o(.text) for osSetEventFromIsr
    ext_int_driver.o(.text) refers to net.o(.bss) for netInterface
    ext_int_driver.o(.text) refers to net.o(.data) for netEvent
    ext_int_driver.o(.constdata) refers to ext_int_driver.o(.text) for extIntInit
    os_port_freertos.o(.text) refers to tasks.o(.text) for vTaskStartScheduler
    os_port_freertos.o(.text) refers to port.o(.text) for vPortYield
    os_port_freertos.o(.text) refers to queue.o(.text) for xQueueGenericCreate
    os_port_freertos.o(.text) refers to heap_3.o(.text) for pvPortMalloc
    os_port_freertos.o(.text) refers to port.o(.emb_text) for ulPortSetInterruptMask
    date_time.o(.text) refers to _printf_pad.o(.text) for _printf_pre_padding
    date_time.o(.text) refers to _printf_percent.o(.ARM.Collect$$_printf_percent$$00000000) for _printf_percent
    date_time.o(.text) refers to _printf_u.o(.ARM.Collect$$_printf_percent$$0000000A) for _printf_u
    date_time.o(.text) refers to _printf_dec.o(.text) for _printf_int_dec
    date_time.o(.text) refers to _printf_s.o(.ARM.Collect$$_printf_percent$$00000014) for _printf_s
    date_time.o(.text) refers to _printf_str.o(.text) for _printf_str
    date_time.o(.text) refers to __2sprintf.o(.text) for __2sprintf
    date_time.o(.text) refers to date_time.o(.bss) for buffer
    date_time.o(.text) refers to date_time.o(.constdata) for months
    str.o(.text) refers to strlen.o(.text) for strlen
    str.o(.text) refers to os_port_freertos.o(.text) for osAllocMem
    str.o(.text) refers to rt_memcpy_v6.o(.text) for __aeabi_memcpy
    str.o(.text) refers to rt_ctype_table.o(.text) for __rt_ctype_table
    str.o(.text) refers to strncpy.o(.text) for strncpy
    path.o(.text) refers to strlen.o(.text) for strlen
    path.o(.text) refers to strncmp.o(.text) for strncmp
    path.o(.text) refers to rt_memmove_v6.o(.text) for __aeabi_memmove
    path.o(.text) refers to strcat.o(.text) for strcat
    path.o(.text) refers to strncpy.o(.text) for strncpy
    path.o(.text) refers to tolower.o(.text) for tolower
    resource_manager.o(.text) refers to strncasecmp.o(.text) for strncasecmp
    resource_manager.o(.text) refers to res.o(.constdata) for res
    net.o(.text) refers to _printf_percent.o(.ARM.Collect$$_printf_percent$$00000000) for _printf_percent
    net.o(.text) refers to _printf_u.o(.ARM.Collect$$_printf_percent$$0000000A) for _printf_u
    net.o(.text) refers to _printf_dec.o(.text) for _printf_int_dec
    net.o(.text) refers to nic.o(.text) for nicTick
    net.o(.text) refers to arp.o(.text) for arpTick
    net.o(.text) refers to ipv4_frag.o(.text) for ipv4FragTick
    net.o(.text) refers to igmp.o(.text) for igmpTick
    net.o(.text) refers to dhcp_client.o(.text) for dhcpClientTick
    net.o(.text) refers to ipv6_frag.o(.text) for ipv6FragTick
    net.o(.text) refers to mld.o(.text) for mldTick
    net.o(.text) refers to ndp.o(.text) for ndpTick
    net.o(.text) refers to tcp_timer.o(.text) for tcpTick
    net.o(.text) refers to dns_cache.o(.text) for dnsTick
    net.o(.text) refers to os_port_freertos.o(.text) for osAcquireMutex
    net.o(.text) refers to net_mem.o(.text) for memPoolInit
    net.o(.text) refers to rt_memclr_w.o(.text) for __aeabi_memclr4
    net.o(.text) refers to __2sprintf.o(.text) for __2sprintf
    net.o(.text) refers to socket.o(.text) for socketInit
    net.o(.text) refers to udp.o(.text) for udpInit
    net.o(.text) refers to tcp.o(.text) for tcpInit
    net.o(.text) refers to nic.o(.data) for nicTickCounter
    net.o(.text) refers to net.o(.bss) for netInterface
    net.o(.text) refers to arp.o(.data) for arpTickCounter
    net.o(.text) refers to ipv4_frag.o(.data) for ipv4FragTickCounter
    net.o(.text) refers to igmp.o(.data) for igmpTickCounter
    net.o(.text) refers to dhcp_client.o(.data) for dhcpClientTickCounter
    net.o(.text) refers to ipv6_frag.o(.data) for ipv6FragTickCounter
    net.o(.text) refers to mld.o(.data) for mldTickCounter
    net.o(.text) refers to ndp.o(.data) for ndpTickCounter
    net.o(.text) refers to tcp.o(.data) for tcpTickCounter
    net.o(.text) refers to dns_cache.o(.data) for dnsTickCounter
    net.o(.text) refers to net.o(.data) for netMutex
    net.o(.text) refers to ethernet.o(.text) for macAddrToEui64
    net.o(.text) refers to str.o(.text) for strSafeCopy
    net.o(.text) refers to ipv4.o(.text) for ipv4Init
    net.o(.text) refers to nbns_common.o(.text) for nbnsInit
    net.o(.text) refers to ipv6.o(.text) for ipv6Init
    net.o(.text) refers to ipv6.o(.constdata) for IPV6_LINK_LOCAL_ALL_NODES_ADDR
    net_mem.o(.text) refers to os_port_freertos.o(.text) for osAllocMem
    net_mem.o(.text) refers to __2fprintf.o(.text) for __2fprintf
    net_mem.o(.text) refers to rt_memcpy_v6.o(.text) for __aeabi_memcpy
    net_mem.o(.text) refers to retarget.o(.data) for __stderr
    stm32f2x7_eth.o(.text) refers to stm32f2xx_rcc.o(.text) for RCC_APB2PeriphClockCmd
    stm32f2x7_eth.o(.text) refers to stm32f2xx_gpio.o(.text) for GPIO_Init
    stm32f2x7_eth.o(.text) refers to stm32f2xx_syscfg.o(.text) for SYSCFG_ETH_MediaInterfaceConfig
    stm32f2x7_eth.o(.text) refers to os_port_freertos.o(.text) for osSuspendAllTasks
    stm32f2x7_eth.o(.text) refers to __2fprintf.o(.text) for __2fprintf
    stm32f2x7_eth.o(.text) refers to stm32f2x7_eth.o(.bss) for txDmaDesc
    stm32f2x7_eth.o(.text) refers to stm32f2x7_eth.o(.data) for txCurDmaDesc
    stm32f2x7_eth.o(.text) refers to retarget.o(.data) for __stderr
    stm32f2x7_eth.o(.text) refers to nic.o(.text) for nicProcessPacket
    stm32f2x7_eth.o(.text) refers to net_mem.o(.text) for netBufferGetLength
    stm32f2x7_eth.o(.text) refers to net.o(.data) for netEvent
    stm32f2x7_eth.o(.constdata) refers to stm32f2x7_eth.o(.text) for stm32f2x7EthInit
    dp83848.o(.text) refers to os_port_freertos.o(.text) for osSuspendAllTasks
    dp83848.o(.text) refers to __2fprintf.o(.text) for __2fprintf
    dp83848.o(.text) refers to nic.o(.text) for nicNotifyLinkChange
    dp83848.o(.text) refers to retarget.o(.data) for __stderr
    dp83848.o(.text) refers to net.o(.data) for netEvent
    dp83848.o(.constdata) refers to dp83848.o(.text) for dp83848Init
    nic.o(.text) refers to _printf_percent.o(.ARM.Collect$$_printf_percent$$00000000) for _printf_percent
    nic.o(.text) refers to _printf_s.o(.ARM.Collect$$_printf_percent$$00000014) for _printf_s
    nic.o(.text) refers to _printf_str.o(.text) for _printf_str
    nic.o(.text) refers to _printf_u.o(.ARM.Collect$$_printf_percent$$0000000A) for _printf_u
    nic.o(.text) refers to _printf_dec.o(.text) for _printf_int_dec
    nic.o(.text) refers to os_port_freertos.o(.text) for osWaitForEvent
    nic.o(.text) refers to ethernet.o(.text) for ethProcessFrame
    nic.o(.text) refers to ipv6.o(.text) for ipv6ProcessPacket
    nic.o(.text) refers to __2fprintf.o(.text) for __2fprintf
    nic.o(.text) refers to ipv4.o(.text) for ipv4LinkChangeEvent
    nic.o(.text) refers to dns_cache.o(.text) for dnsFlushCache
    nic.o(.text) refers to net.o(.text) for netInvokeLinkChangeCallback
    nic.o(.text) refers to tcp_misc.o(.text) for tcpUpdateEvents
    nic.o(.text) refers to udp.o(.text) for udpUpdateEvents
    nic.o(.text) refers to retarget.o(.data) for __stderr
    nic.o(.text) refers to socket.o(.bss) for socketTable
    ethernet.o(.text) refers to _printf_pad.o(.text) for _printf_pre_padding
    ethernet.o(.text) refers to _printf_percent.o(.ARM.Collect$$_printf_percent$$00000000) for _printf_percent
    ethernet.o(.text) refers to _printf_x.o(.ARM.Collect$$_printf_percent$$0000000C) for _printf_x
    ethernet.o(.text) refers to _printf_hex_int.o(.text) for _printf_longlong_hex
    ethernet.o(.text) refers to rt_memclr_w.o(.text) for __aeabi_memclr4
    ethernet.o(.text) refers to memcmp.o(.text) for memcmp
    ethernet.o(.text) refers to net.o(.text) for netInitRand
    ethernet.o(.text) refers to endian.o(.text) for _swap16
    ethernet.o(.text) refers to arp.o(.text) for arpProcessPacket
    ethernet.o(.text) refers to ipv4.o(.text) for ipv4ProcessPacket
    ethernet.o(.text) refers to ipv6.o(.text) for ipv6ProcessPacket
    ethernet.o(.text) refers to net_mem.o(.text) for netBufferGetLength
    ethernet.o(.text) refers to nic.o(.text) for nicSendPacket
    ethernet.o(.text) refers to rt_ctype_table.o(.text) for __rt_ctype_table
    ethernet.o(.text) refers to ethernet.o(.constdata) for MAC_BROADCAST_ADDR
    ethernet.o(.text) refers to __2sprintf.o(.text) for __2sprintf
    ethernet.o(.text) refers to ethernet.o(.bss) for buffer
    arp.o(.text) refers to rt_memclr_w.o(.text) for __aeabi_memclr4
    arp.o(.text) refers to net_mem.o(.text) for netBufferFree
    arp.o(.text) refers to ethernet.o(.text) for ethSendFrame
    arp.o(.text) refers to ipv4.o(.text) for ipv4SelectSourceAddr
    arp.o(.text) refers to endian.o(.text) for _swap16
    arp.o(.text) refers to os_port_freertos.o(.text) for osGetSystemTime
    arp.o(.text) refers to memcmp.o(.text) for memcmp
    arp.o(.text) refers to ethernet.o(.constdata) for MAC_UNSPECIFIED_ADDR
    ipv4.o(.text) refers to _printf_percent.o(.ARM.Collect$$_printf_percent$$00000000) for _printf_percent
    ipv4.o(.text) refers to _printf_u.o(.ARM.Collect$$_printf_percent$$0000000A) for _printf_u
    ipv4.o(.text) refers to _printf_dec.o(.text) for _printf_int_dec
    ipv4.o(.text) refers to rt_memclr_w.o(.text) for __aeabi_memclr4
    ipv4.o(.text) refers to os_port_freertos.o(.text) for osAcquireMutex
    ipv4.o(.text) refers to arp.o(.text) for arpFlushCache
    ipv4.o(.text) refers to ipv4_frag.o(.text) for ipv4FlushFragQueue
    ipv4.o(.text) refers to igmp.o(.text) for igmpLinkChangeEvent
    ipv4.o(.text) refers to dhcp_client.o(.text) for dhcpClientLinkChangeEvent
    ipv4.o(.text) refers to net_mem.o(.text) for netBufferGetLength
    ipv4.o(.text) refers to endian.o(.text) for _swap16
    ipv4.o(.text) refers to icmp.o(.text) for icmpProcessMessage
    ipv4.o(.text) refers to tcp_fsm.o(.text) for tcpProcessSegment
    ipv4.o(.text) refers to udp.o(.text) for udpProcessDatagram
    ipv4.o(.text) refers to net.o(.data) for netMutex
    ipv4.o(.text) refers to ip.o(.text) for ipCalcChecksum
    ipv4.o(.text) refers to ethernet.o(.text) for ethSendFrame
    ipv4.o(.text) refers to rt_ctype_table.o(.text) for __rt_ctype_table
    ipv4.o(.text) refers to ethernet.o(.constdata) for MAC_BROADCAST_ADDR
    ipv4.o(.text) refers to net.o(.bss) for netInterface
    ipv4.o(.text) refers to __2sprintf.o(.text) for __2sprintf
    ipv4.o(.text) refers to ipv4.o(.bss) for buffer
    ipv4_frag.o(.text) refers to net_mem.o(.text) for netBufferGetLength
    ipv4_frag.o(.text) refers to ip.o(.text) for ipAllocBuffer
    ipv4_frag.o(.text) refers to ipv4.o(.text) for ipv4SendPacket
    ipv4_frag.o(.text) refers to os_port_freertos.o(.text) for osGetSystemTime
    ipv4_frag.o(.text) refers to endian.o(.text) for _swap16
    ipv4_frag.o(.text) refers to icmp.o(.text) for icmpSendErrorMessage
    icmp.o(.text) refers to net_mem.o(.text) for netBufferGetLength
    icmp.o(.text) refers to ip.o(.text) for ipAllocBuffer
    icmp.o(.text) refers to endian.o(.text) for _swap16
    icmp.o(.text) refers to ipv4.o(.text) for ipv4SendDatagram
    igmp.o(.text) refers to _printf_percent.o(.ARM.Collect$$_printf_percent$$00000000) for _printf_percent
    igmp.o(.text) refers to _printf_u.o(.ARM.Collect$$_printf_percent$$0000000A) for _printf_u
    igmp.o(.text) refers to _printf_dec.o(.text) for _printf_int_dec
    igmp.o(.text) refers to os_port_freertos.o(.text) for osGetSystemTime
    igmp.o(.text) refers to ip.o(.text) for ipAllocBuffer
    igmp.o(.text) refers to net_mem.o(.text) for netBufferAt
    igmp.o(.text) refers to __2fprintf.o(.text) for __2fprintf
    igmp.o(.text) refers to ipv4.o(.text) for ipv4SendDatagram
    igmp.o(.text) refers to net.o(.text) for netGetRand
    igmp.o(.text) refers to retarget.o(.data) for __stderr
    ipv6.o(.text) refers to _printf_percent.o(.ARM.Collect$$_printf_percent$$00000000) for _printf_percent
    ipv6.o(.text) refers to _printf_x.o(.ARM.Collect$$_printf_percent$$0000000C) for _printf_x
    ipv6.o(.text) refers to _printf_hex_int.o(.text) for _printf_longlong_hex
    ipv6.o(.text) refers to rt_memclr_w.o(.text) for __aeabi_memclr4
    ipv6.o(.text) refers to os_port_freertos.o(.text) for osAcquireMutex
    ipv6.o(.text) refers to ipv6_misc.o(.text) for ipv6SetAddr
    ipv6.o(.text) refers to rt_memcpy_v6.o(.text) for __aeabi_memcpy
    ipv6.o(.text) refers to memcmp.o(.text) for memcmp
    ipv6.o(.text) refers to ethernet.o(.text) for ethAcceptMulticastAddr
    ipv6.o(.text) refers to mld.o(.text) for mldStartListening
    ipv6.o(.text) refers to net.o(.data) for netMutex
    ipv6.o(.text) refers to ipv6.o(.constdata) for IPV6_UNSPECIFIED_ADDR
    ipv6.o(.text) refers to ipv6_frag.o(.text) for ipv6FlushFragQueue
    ipv6.o(.text) refers to ndp.o(.text) for ndpLinkChangeEvent
    ipv6.o(.text) refers to slaac.o(.text) for slaacLinkChangeEvent
    ipv6.o(.text) refers to net_mem.o(.text) for netBufferGetLength
    ipv6.o(.text) refers to icmpv6.o(.text) for icmpv6SendErrorMessage
    ipv6.o(.text) refers to endian.o(.text) for _swap16
    ipv6.o(.text) refers to tcp_fsm.o(.text) for tcpProcessSegment
    ipv6.o(.text) refers to udp.o(.text) for udpProcessDatagram
    ipv6.o(.text) refers to ndp_cache.o(.text) for ndpFindDestCacheEntry
    ipv6.o(.text) refers to ndp_misc.o(.text) for ndpSelectNextHop
    ipv6.o(.text) refers to nic.o(.text) for nicSendPacket
    ipv6.o(.text) refers to ipv6_pmtu.o(.text) for ipv6GetPathMtu
    ipv6.o(.text) refers to rt_ctype_table.o(.text) for __rt_ctype_table
    ipv6.o(.text) refers to strncmp.o(.text) for strncmp
    ipv6.o(.text) refers to __2sprintf.o(.text) for __2sprintf
    ipv6.o(.text) refers to ipv6.o(.bss) for buffer
    ipv6_frag.o(.text) refers to net_mem.o(.text) for netBufferGetLength
    ipv6_frag.o(.text) refers to ip.o(.text) for ipAllocBuffer
    ipv6_frag.o(.text) refers to ipv6.o(.text) for ipv6SendPacket
    ipv6_frag.o(.text) refers to memcmp.o(.text) for memcmp
    ipv6_frag.o(.text) refers to os_port_freertos.o(.text) for osGetSystemTime
    ipv6_frag.o(.text) refers to endian.o(.text) for _swap16
    ipv6_frag.o(.text) refers to icmpv6.o(.text) for icmpv6SendErrorMessage
    ipv6_misc.o(.text) refers to memcmp.o(.text) for memcmp
    ipv6_misc.o(.text) refers to rt_memcpy_v6.o(.text) for __aeabi_memcpy
    ipv6_misc.o(.text) refers to ipv6.o(.text) for ipv6LeaveMulticastGroup
    ipv6_misc.o(.text) refers to os_port_freertos.o(.text) for osGetSystemTime
    ipv6_misc.o(.text) refers to ipv6.o(.constdata) for IPV6_SOLICITED_NODE_ADDR_PREFIX
    ipv6_misc.o(.text) refers to ndp_cache.o(.text) for ndpFlushDestCache
    ipv6_misc.o(.text) refers to rt_memclr_w.o(.text) for __aeabi_memclr4
    ipv6_misc.o(.text) refers to net.o(.bss) for netInterface
    ipv6_pmtu.o(.text) refers to ndp_cache.o(.text) for ndpFindDestCacheEntry
    icmpv6.o(.text) refers to os_port_freertos.o(.text) for osAcquireMutex
    icmpv6.o(.text) refers to net_mem.o(.text) for netBufferGetLength
    icmpv6.o(.text) refers to ipv6_misc.o(.text) for ipv6SelectSourceAddr
    icmpv6.o(.text) refers to rt_memcpy_v6.o(.text) for __aeabi_memcpy
    icmpv6.o(.text) refers to ip.o(.text) for ipAllocBuffer
    icmpv6.o(.text) refers to endian.o(.text) for _swap32
    icmpv6.o(.text) refers to ipv6.o(.text) for ipv6SendDatagram
    icmpv6.o(.text) refers to ipv6_pmtu.o(.text) for ipv6UpdatePathMtu
    icmpv6.o(.text) refers to mld.o(.text) for mldProcessListenerQuery
    icmpv6.o(.text) refers to ndp.o(.text) for ndpProcessRouterAdv
    icmpv6.o(.text) refers to net.o(.data) for netMutex
    mld.o(.text) refers to _printf_percent.o(.ARM.Collect$$_printf_percent$$00000000) for _printf_percent
    mld.o(.text) refers to _printf_u.o(.ARM.Collect$$_printf_percent$$0000000A) for _printf_u
    mld.o(.text) refers to _printf_dec.o(.text) for _printf_int_dec
    mld.o(.text) refers to memcmp.o(.text) for memcmp
    mld.o(.text) refers to ip.o(.text) for ipAllocBuffer
    mld.o(.text) refers to net_mem.o(.text) for netBufferAt
    mld.o(.text) refers to rt_memcpy_v6.o(.text) for __aeabi_memcpy
    mld.o(.text) refers to os_port_freertos.o(.text) for osSuspendAllTasks
    mld.o(.text) refers to __2fprintf.o(.text) for __2fprintf
    mld.o(.text) refers to ipv6.o(.text) for ipv6SendDatagram
    mld.o(.text) refers to net.o(.text) for netGetRand
    mld.o(.text) refers to ipv6.o(.constdata) for IPV6_LINK_LOCAL_ALL_NODES_ADDR
    mld.o(.text) refers to retarget.o(.data) for __stderr
    ndp.o(.text) refers to _printf_percent.o(.ARM.Collect$$_printf_percent$$00000000) for _printf_percent
    ndp.o(.text) refers to _printf_u.o(.ARM.Collect$$_printf_percent$$0000000A) for _printf_u
    ndp.o(.text) refers to _printf_dec.o(.text) for _printf_int_dec
    ndp.o(.text) refers to _printf_s.o(.ARM.Collect$$_printf_percent$$00000014) for _printf_s
    ndp.o(.text) refers to _printf_str.o(.text) for _printf_str
    ndp.o(.text) refers to rt_memclr_w.o(.text) for __aeabi_memclr4
    ndp.o(.text) refers to ipv6_misc.o(.text) for ipv6ComputeSolicitedNodeAddr
    ndp.o(.text) refers to rt_memcpy_v6.o(.text) for __aeabi_memcpy
    ndp.o(.text) refers to ip.o(.text) for ipAllocBuffer
    ndp.o(.text) refers to net_mem.o(.text) for netBufferAt
    ndp.o(.text) refers to memcmp.o(.text) for memcmp
    ndp.o(.text) refers to ndp_misc.o(.text) for ndpAddOption
    ndp.o(.text) refers to endian.o(.text) for _swap32
    ndp.o(.text) refers to os_port_freertos.o(.text) for osSuspendAllTasks
    ndp.o(.text) refers to __2fprintf.o(.text) for __2fprintf
    ndp.o(.text) refers to ipv6.o(.text) for ipv6SendDatagram
    ndp.o(.text) refers to ndp_cache.o(.text) for ndpFindNeighborCacheEntry
    ndp.o(.text) refers to net.o(.text) for netGetRandRange
    ndp.o(.text) refers to ipv6.o(.constdata) for IPV6_UNSPECIFIED_ADDR
    ndp.o(.text) refers to retarget.o(.data) for __stderr
    ndp.o(.text) refers to ethernet.o(.constdata) for MAC_UNSPECIFIED_ADDR
    ndp.o(.text) refers to slaac.o(.text) for slaacParseRouterAdv
    ndp_cache.o(.text) refers to icmpv6.o(.text) for icmpv6SendErrorMessage
    ndp_cache.o(.text) refers to net_mem.o(.text) for netBufferFree
    ndp_cache.o(.text) refers to rt_memclr_w.o(.text) for __aeabi_memclr4
    ndp_cache.o(.text) refers to memcmp.o(.text) for memcmp
    ndp_cache.o(.text) refers to os_port_freertos.o(.text) for osGetSystemTime
    ndp_cache.o(.text) refers to ndp.o(.text) for ndpSendNeighborSol
    ndp_cache.o(.text) refers to rt_memcpy_v6.o(.text) for __aeabi_memcpy
    ndp_cache.o(.text) refers to ndp_misc.o(.text) for ndpUpdateNextHop
    ndp_cache.o(.text) refers to ethernet.o(.text) for ethSendFrame
    ndp_cache.o(.text) refers to ipv6.o(.constdata) for IPV6_UNSPECIFIED_ADDR
    ndp_misc.o(.text) refers to ipv6_misc.o(.text) for ipv6CompPrefix
    ndp_misc.o(.text) refers to endian.o(.text) for _swap32
    ndp_misc.o(.text) refers to os_port_freertos.o(.text) for osGetSystemTime
    ndp_misc.o(.text) refers to net.o(.text) for netGetRandRange
    ndp_misc.o(.text) refers to ndp.o(.text) for ndpSendNeighborSol
    ndp_misc.o(.text) refers to rt_memcpy_v6.o(.text) for __aeabi_memcpy
    ndp_misc.o(.text) refers to ndp_cache.o(.text) for ndpFlushDestCache
    ndp_misc.o(.text) refers to memcmp.o(.text) for memcmp
    ndp_misc.o(.text) refers to ipv6.o(.constdata) for IPV6_LINK_LOCAL_ADDR_PREFIX
    ndp_misc.o(.text) refers to rt_memclr.o(.text) for __aeabi_memclr
    slaac.o(.text) refers to _printf_percent.o(.ARM.Collect$$_printf_percent$$00000000) for _printf_percent
    slaac.o(.text) refers to _printf_s.o(.ARM.Collect$$_printf_percent$$00000014) for _printf_s
    slaac.o(.text) refers to _printf_str.o(.text) for _printf_str
    slaac.o(.text) refers to _printf_u.o(.ARM.Collect$$_printf_percent$$0000000A) for _printf_u
    slaac.o(.text) refers to _printf_dec.o(.text) for _printf_int_dec
    slaac.o(.text) refers to net.o(.text) for netGetDefaultInterface
    slaac.o(.text) refers to os_port_freertos.o(.text) for osSuspendAllTasks
    slaac.o(.text) refers to __2fprintf.o(.text) for __2fprintf
    slaac.o(.text) refers to rt_memclr_w.o(.text) for __aeabi_memclr4
    slaac.o(.text) refers to ipv6_misc.o(.text) for ipv6GenerateLinkLocalAddr
    slaac.o(.text) refers to ipv6.o(.text) for ipv6AddrToString
    slaac.o(.text) refers to endian.o(.text) for _swap32
    slaac.o(.text) refers to retarget.o(.data) for __stderr
    slaac.o(.text) refers to net.o(.data) for netMutex
    slaac.o(.text) refers to ipv6.o(.constdata) for IPV6_LINK_LOCAL_ADDR_PREFIX
    slaac.o(.text) refers to ndp_misc.o(.text) for ndpGetOption
    slaac.o(.text) refers to rt_memcpy_v6.o(.text) for __aeabi_memcpy
    ip.o(.text) refers to ipv4.o(.text) for ipv4SendDatagram
    ip.o(.text) refers to ipv6.o(.text) for ipv6SendDatagram
    ip.o(.text) refers to ipv6_misc.o(.text) for ipv6SelectSourceAddr
    ip.o(.text) refers to ethernet.o(.text) for ethAllocBuffer
    ip.o(.text) refers to net.o(.text) for netGetDefaultInterface
    ip.o(.text) refers to os_port_freertos.o(.text) for osAcquireMutex
    ip.o(.text) refers to memcmp.o(.text) for memcmp
    ip.o(.text) refers to strchr.o(.text) for strchr
    ip.o(.text) refers to net.o(.data) for netMutex
    ip.o(.text) refers to ipv6.o(.constdata) for IPV6_UNSPECIFIED_ADDR
    ip.o(.text) refers to ip.o(.data) for c
    tcp.o(.text) refers to net.o(.text) for netGetRand
    tcp.o(.text) refers to net_mem.o(.text) for netBufferSetLength
    tcp.o(.text) refers to tcp_misc.o(.text) for tcpDeleteControlBlock
    tcp.o(.text) refers to os_port_freertos.o(.text) for osAcquireMutex
    tcp.o(.text) refers to rt_memcpy_w.o(.text) for __aeabi_memcpy4
    tcp.o(.text) refers to socket.o(.text) for socketOpen
    tcp.o(.text) refers to tcp.o(.data) for tcpDynamicPort
    tcp.o(.text) refers to net.o(.data) for netMutex
    tcp.o(.text) refers to tcp_timer.o(.text) for tcpTimerStart
    tcp.o(.text) refers to socket.o(.bss) for socketTable
    tcp_fsm.o(.text) refers to tcp_misc.o(.text) for tcpCheckSequenceNumber
    tcp_fsm.o(.text) refers to tcp_timer.o(.text) for tcpTimerStart
    tcp_fsm.o(.text) refers to endian.o(.text) for _swap16
    tcp_fsm.o(.text) refers to net_mem.o(.text) for memPoolAlloc
    tcp_fsm.o(.text) refers to ipv4.o(.text) for ipv4IsBroadcastAddr
    tcp_fsm.o(.text) refers to ip.o(.text) for ipCalcUpperLayerChecksumEx
    tcp_fsm.o(.text) refers to memcmp.o(.text) for memcmp
    tcp_fsm.o(.text) refers to socket.o(.bss) for socketTable
    tcp_misc.o(.text) refers to net_mem.o(.text) for netBufferConcat
    tcp_misc.o(.text) refers to rt_memcpy_v6.o(.text) for __aeabi_memcpy
    tcp_misc.o(.text) refers to ip.o(.text) for ipAllocBuffer
    tcp_misc.o(.text) refers to endian.o(.text) for _swap16
    tcp_misc.o(.text) refers to rt_memcpy_w.o(.text) for __aeabi_memcpy4
    tcp_misc.o(.text) refers to os_port_freertos.o(.text) for osGetSystemTime
    tcp_misc.o(.text) refers to tcp_timer.o(.text) for tcpTimerRunning
    tcp_misc.o(.text) refers to net.o(.data) for netMutex
    tcp_timer.o(.text) refers to os_port_freertos.o(.text) for osGetSystemTime
    tcp_timer.o(.text) refers to tcp_misc.o(.text) for tcpRetransmitSegment
    tcp_timer.o(.text) refers to socket.o(.bss) for socketTable
    udp.o(.text) refers to os_port_freertos.o(.text) for osCreateMutex
    udp.o(.text) refers to rt_memclr_w.o(.text) for __aeabi_memclr4
    udp.o(.text) refers to net.o(.text) for netGetRand
    udp.o(.text) refers to endian.o(.text) for _swap16
    udp.o(.text) refers to net_mem.o(.text) for netBufferGetLength
    udp.o(.text) refers to ip.o(.text) for ipCalcUpperLayerChecksumEx
    udp.o(.text) refers to memcmp.o(.text) for memcmp
    udp.o(.text) refers to ipv4.o(.text) for ipv4SelectSourceAddr
    udp.o(.text) refers to udp.o(.data) for udpDynamicPort
    udp.o(.text) refers to udp.o(.bss) for udpCallbackTable
    udp.o(.text) refers to socket.o(.bss) for socketTable
    udp.o(.text) refers to ipv6_misc.o(.text) for ipv6SelectSourceAddr
    udp.o(.text) refers to rt_memcpy_w.o(.text) for __aeabi_memcpy4
    udp.o(.text) refers to net.o(.data) for netMutex
    socket.o(.text) refers to rt_memclr_w.o(.text) for __aeabi_memclr4
    socket.o(.text) refers to os_port_freertos.o(.text) for osCreateEvent
    socket.o(.text) refers to tcp.o(.text) for tcpGetDynamicPort
    socket.o(.text) refers to udp.o(.text) for udpGetDynamicPort
    socket.o(.text) refers to rt_memcpy_w.o(.text) for __aeabi_memcpy4
    socket.o(.text) refers to ip.o(.text) for ipSelectSourceAddr
    socket.o(.text) refers to socket.o(.bss) for socketTable
    socket.o(.text) refers to net.o(.data) for netMutex
    socket.o(.text) refers to net_mem.o(.text) for memPoolFree
    socket.o(.text) refers to tcp_misc.o(.text) for tcpUpdateEvents
    socket.o(.text) refers to net.o(.text) for netGetDefaultInterface
    socket.o(.text) refers to strlen.o(.text) for strlen
    socket.o(.text) refers to strcasecmp.o(.text) for strcasecmp
    socket.o(.text) refers to strchr.o(.text) for strchr
    socket.o(.text) refers to dns_client.o(.text) for dnsResolve
    socket.o(.text) refers to nbns_client.o(.text) for nbnsResolve
    bsd_socket.o(.text) refers to socket.o(.text) for socketOpen
    bsd_socket.o(.text) refers to endian.o(.text) for _swap16
    bsd_socket.o(.text) refers to memcmp.o(.text) for memcmp
    bsd_socket.o(.text) refers to rt_memcpy_v6.o(.text) for __aeabi_memcpy
    bsd_socket.o(.text) refers to socket.o(.bss) for socketTable
    bsd_socket.o(.text) refers to bsd_socket.o(.constdata) for in6addr_any
    bsd_socket.o(.text) refers to ipv6.o(.constdata) for IPV6_UNSPECIFIED_ADDR
    bsd_socket.o(.text) refers to os_port_freertos.o(.text) for osAcquireMutex
    bsd_socket.o(.text) refers to net.o(.data) for netMutex
    bsd_socket.o(.text) refers to ipv4.o(.text) for ipv4StringToAddr
    bsd_socket.o(.text) refers to ipv6.o(.text) for ipv6StringToAddr
    dns_cache.o(.text) refers to rt_memclr_w.o(.text) for __aeabi_memclr4
    dns_cache.o(.text) refers to udp.o(.text) for udpDetachRxCallback
    dns_cache.o(.text) refers to strcasecmp.o(.text) for strcasecmp
    dns_cache.o(.text) refers to os_port_freertos.o(.text) for osGetSystemTime
    dns_cache.o(.text) refers to dns_client.o(.text) for dnsSendQuery
    dns_cache.o(.text) refers to nbns_client.o(.text) for nbnsSendQuery
    dns_cache.o(.text) refers to dns_cache.o(.bss) for dnsCache
    dns_client.o(.text) refers to _printf_percent.o(.ARM.Collect$$_printf_percent$$00000000) for _printf_percent
    dns_client.o(.text) refers to _printf_u.o(.ARM.Collect$$_printf_percent$$0000000A) for _printf_u
    dns_client.o(.text) refers to _printf_dec.o(.text) for _printf_int_dec
    dns_client.o(.text) refers to _printf_s.o(.ARM.Collect$$_printf_percent$$00000014) for _printf_s
    dns_client.o(.text) refers to _printf_str.o(.text) for _printf_str
    dns_client.o(.text) refers to rt_memcpy_v6.o(.text) for __aeabi_memcpy
    dns_client.o(.text) refers to memcmp.o(.text) for memcmp
    dns_client.o(.text) refers to udp.o(.text) for udpAllocBuffer
    dns_client.o(.text) refers to net_mem.o(.text) for netBufferAt
    dns_client.o(.text) refers to endian.o(.text) for _swap16
    dns_client.o(.text) refers to dns_common.o(.text) for dnsEncodeName
    dns_client.o(.text) refers to os_port_freertos.o(.text) for osSuspendAllTasks
    dns_client.o(.text) refers to __2fprintf.o(.text) for __2fprintf
    dns_client.o(.text) refers to dns_cache.o(.text) for dnsDeleteEntry
    dns_client.o(.text) refers to rt_memcpy_w.o(.text) for __aeabi_memcpy4
    dns_client.o(.text) refers to strcpy.o(.text) for strcpy
    dns_client.o(.text) refers to net.o(.text) for netGetRand
    dns_client.o(.text) refers to ipv6.o(.constdata) for IPV6_UNSPECIFIED_ADDR
    dns_client.o(.text) refers to retarget.o(.data) for __stderr
    dns_client.o(.text) refers to dns_cache.o(.bss) for dnsCache
    dns_client.o(.text) refers to net.o(.data) for netMutex
    dns_client.o(.text) refers to ip.o(.text) for ipAddrToString
    dns_common.o(.text) refers to rt_memcpy_v6.o(.text) for __aeabi_memcpy
    dns_common.o(.text) refers to strncasecmp.o(.text) for strncasecmp
    nbns_client.o(.text) refers to udp.o(.text) for udpAllocBuffer
    nbns_client.o(.text) refers to net_mem.o(.text) for netBufferAt
    nbns_client.o(.text) refers to endian.o(.text) for _swap16
    nbns_client.o(.text) refers to nbns_common.o(.text) for nbnsEncodeName
    nbns_client.o(.text) refers to ipv4.o(.text) for ipv4GetBroadcastAddr
    nbns_client.o(.text) refers to os_port_freertos.o(.text) for osAcquireMutex
    nbns_client.o(.text) refers to dns_cache.o(.text) for dnsFindEntry
    nbns_client.o(.text) refers to rt_memcpy_w.o(.text) for __aeabi_memcpy4
    nbns_client.o(.text) refers to strcpy.o(.text) for strcpy
    nbns_client.o(.text) refers to net.o(.data) for netMutex
    nbns_client.o(.text) refers to dns_cache.o(.bss) for dnsCache
    nbns_responder.o(.text) refers to udp.o(.text) for udpAllocBuffer
    nbns_responder.o(.text) refers to net_mem.o(.text) for netBufferAt
    nbns_responder.o(.text) refers to nbns_common.o(.text) for nbnsEncodeName
    nbns_responder.o(.text) refers to endian.o(.text) for _swap16
    nbns_common.o(.text) refers to net_mem.o(.text) for netBufferGetLength
    nbns_common.o(.text) refers to nbns_responder.o(.text) for nbnsProcessQuery
    nbns_common.o(.text) refers to nbns_client.o(.text) for nbnsProcessResponse
    nbns_common.o(.text) refers to udp.o(.text) for udpAttachRxCallback
    nbns_common.o(.text) refers to toupper.o(.text) for toupper
    dhcp_client.o(.text) refers to _printf_percent.o(.ARM.Collect$$_printf_percent$$00000000) for _printf_percent
    dhcp_client.o(.text) refers to _printf_s.o(.ARM.Collect$$_printf_percent$$00000014) for _printf_s
    dhcp_client.o(.text) refers to _printf_str.o(.text) for _printf_str
    dhcp_client.o(.text) refers to _printf_u.o(.ARM.Collect$$_printf_percent$$0000000A) for _printf_u
    dhcp_client.o(.text) refers to _printf_dec.o(.text) for _printf_int_dec
    dhcp_client.o(.text) refers to net.o(.text) for netGetDefaultInterface
    dhcp_client.o(.text) refers to os_port_freertos.o(.text) for osGetSystemTime
    dhcp_client.o(.text) refers to date_time.o(.text) for formatSystemTime
    dhcp_client.o(.text) refers to __2fprintf.o(.text) for __2fprintf
    dhcp_client.o(.text) refers to endian.o(.text) for _swap32
    dhcp_client.o(.text) refers to memcmp.o(.text) for memcmp
    dhcp_client.o(.text) refers to dhcp_common.o(.text) for dhcpGetOption
    dhcp_client.o(.text) refers to dhcp_client.o(.data) for stateLabel
    dhcp_client.o(.text) refers to retarget.o(.data) for __stderr
    dhcp_client.o(.text) refers to net.o(.data) for netMutex
    dhcp_client.o(.text) refers to net_mem.o(.text) for netBufferGetLength
    dhcp_client.o(.text) refers to rt_memclr_w.o(.text) for __aeabi_memclr4
    dhcp_client.o(.text) refers to rt_memcpy_w.o(.text) for __aeabi_memcpy4
    dhcp_client.o(.text) refers to strlen.o(.text) for strlen
    dhcp_client.o(.text) refers to strncpy.o(.text) for strncpy
    dhcp_client.o(.text) refers to udp.o(.text) for udpAttachRxCallback
    dhcp_client.o(.text) refers to rt_memclr.o(.text) for __aeabi_memclr
    dhcp_client.o(.text) refers to dhcp_client.o(.constdata) for dhcpOptionList
    dhcp_client.o(.text) refers to ipv4.o(.text) for ipv4AddrToString
    dhcp_client.o(.text) refers to arp.o(.text) for arpSendRequest
    dhcp_client.o(.text) refers to ethernet.o(.constdata) for MAC_BROADCAST_ADDR
    dhcp_client.o(.data) refers to dhcp_client.o(.conststring) for .conststring
    dhcp_common.o(.text) refers to rt_memcpy_v6.o(.text) for __aeabi_memcpy
    http_server.o(.text) refers to _printf_percent.o(.ARM.Collect$$_printf_percent$$00000000) for _printf_percent
    http_server.o(.text) refers to _printf_u.o(.ARM.Collect$$_printf_percent$$0000000A) for _printf_u
    http_server.o(.text) refers to _printf_s.o(.ARM.Collect$$_printf_percent$$00000014) for _printf_s
    http_server.o(.text) refers to _printf_dec.o(.text) for _printf_int_dec
    http_server.o(.text) refers to _printf_str.o(.text) for _printf_str
    http_server.o(.text) refers to _printf_x.o(.ARM.Collect$$_printf_percent$$0000000C) for _printf_x
    http_server.o(.text) refers to _printf_hex_int.o(.text) for _printf_longlong_hex
    http_server.o(.text) refers to _printf_pad.o(.text) for _printf_pre_padding
    http_server.o(.text) refers to _printf_d.o(.ARM.Collect$$_printf_percent$$00000009) for _printf_d
    http_server.o(.text) refers to strcpy.o(.text) for strcpy
    http_server.o(.text) refers to os_port_freertos.o(.text) for osSuspendAllTasks
    http_server.o(.text) refers to __2fprintf.o(.text) for __2fprintf
    http_server.o(.text) refers to rt_memclr_w.o(.text) for __aeabi_memclr4
    http_server.o(.text) refers to rt_memcpy_w.o(.text) for __aeabi_memcpy4
    http_server.o(.text) refers to socket.o(.text) for socketOpen
    http_server.o(.text) refers to ip.o(.text) for ipAddrToString
    http_server.o(.text) refers to http_server_misc.o(.text) for httpSend
    http_server.o(.text) refers to __2sprintf.o(.text) for __2sprintf
    http_server.o(.text) refers to strlen.o(.text) for strlen
    http_server.o(.text) refers to mime.o(.text) for mimeGetType
    http_server.o(.text) refers to resource_manager.o(.text) for resGetData
    http_server.o(.text) refers to retarget.o(.data) for __stderr
    http_server.o(.text) refers to ip.o(.constdata) for IP_ADDR_ANY
    http_server.o(.text) refers to http_server.o(.constdata) for template
    http_server.o(.text) refers to ssi.o(.text) for ssiExecuteScript
    http_server_auth.o(.text) refers to strcmpv7m.o(.text) for strcmp
    http_server_auth.o(.text) refers to strtok_r.o(.text) for strtok_r
    http_server_auth.o(.text) refers to strcasecmp.o(.text) for strcasecmp
    http_server_auth.o(.text) refers to strlen.o(.text) for strlen
    http_server_auth.o(.text) refers to base64.o(.text) for base64Decode
    http_server_auth.o(.text) refers to strchr.o(.text) for strchr
    http_server_auth.o(.text) refers to str.o(.text) for strSafeCopy
    http_server_misc.o(.text) refers to _printf_percent.o(.ARM.Collect$$_printf_percent$$00000000) for _printf_percent
    http_server_misc.o(.text) refers to _printf_s.o(.ARM.Collect$$_printf_percent$$00000014) for _printf_s
    http_server_misc.o(.text) refers to _printf_str.o(.text) for _printf_str
    http_server_misc.o(.text) refers to _printf_u.o(.ARM.Collect$$_printf_percent$$0000000A) for _printf_u
    http_server_misc.o(.text) refers to _printf_dec.o(.text) for _printf_int_dec
    http_server_misc.o(.text) refers to socket.o(.text) for socketReceive
    http_server_misc.o(.text) refers to strcmpv7m.o(.text) for strcmp
    http_server_misc.o(.text) refers to strtoul.o(.text) for strtoul
    http_server_misc.o(.text) refers to strtok_r.o(.text) for strtok_r
    http_server_misc.o(.text) refers to str.o(.text) for strSafeCopy
    http_server_misc.o(.text) refers to strchr.o(.text) for strchr
    http_server_misc.o(.text) refers to strlen.o(.text) for strlen
    http_server_misc.o(.text) refers to strcpy.o(.text) for strcpy
    http_server_misc.o(.text) refers to strcasecmp.o(.text) for strcasecmp
    http_server_misc.o(.text) refers to path.o(.text) for pathCanonicalize
    http_server_misc.o(.text) refers to os_port_freertos.o(.text) for osSuspendAllTasks
    http_server_misc.o(.text) refers to __2fprintf.o(.text) for __2fprintf
    http_server_misc.o(.text) refers to atoi.o(.text) for atoi
    http_server_misc.o(.text) refers to http_server_auth.o(.text) for httpParseAuthField
    http_server_misc.o(.text) refers to retarget.o(.data) for __stderr
    http_server_misc.o(.text) refers to __2sprintf.o(.text) for __2sprintf
    http_server_misc.o(.text) refers to strncasecmp.o(.text) for strncasecmp
    http_server_misc.o(.text) refers to http_server_misc.o(.constdata) for statusCodeList
    mime.o(.text) refers to strlen.o(.text) for strlen
    mime.o(.text) refers to strcasecmp.o(.text) for strcasecmp
    mime.o(.text) refers to mime.o(.constdata) for mimeTypeList
    mime.o(.constdata) refers to mime.o(.conststring) for .conststring
    ssi.o(.text) refers to _printf_percent.o(.ARM.Collect$$_printf_percent$$00000000) for _printf_percent
    ssi.o(.text) refers to _printf_u.o(.ARM.Collect$$_printf_percent$$0000000A) for _printf_u
    ssi.o(.text) refers to _printf_dec.o(.text) for _printf_int_dec
    ssi.o(.text) refers to rt_memcpy_v6.o(.text) for __aeabi_memcpy
    ssi.o(.text) refers to strchr.o(.text) for strchr
    ssi.o(.text) refers to str.o(.text) for strTrimWhitespace
    ssi.o(.text) refers to strlen.o(.text) for strlen
    ssi.o(.text) refers to strcasecmp.o(.text) for strcasecmp
    ssi.o(.text) refers to strcpy.o(.text) for strcpy
    ssi.o(.text) refers to ip.o(.text) for ipAddrToString
    ssi.o(.text) refers to __2sprintf.o(.text) for __2sprintf
    ssi.o(.text) refers to http_server_misc.o(.text) for httpGetAbsolutePath
    ssi.o(.text) refers to http_server.o(.text) for httpWriteStream
    ssi.o(.text) refers to os_port_freertos.o(.text) for osAllocMem
    ssi.o(.text) refers to strrchr.o(.text) for strrchr
    ssi.o(.text) refers to resource_manager.o(.text) for resGetData
    ssi.o(.text) refers to strncasecmp.o(.text) for strncasecmp
    ssi.o(.text) refers to mime.o(.text) for mimeGetType
    smtp_client.o(.text) refers to _printf_percent.o(.ARM.Collect$$_printf_percent$$00000000) for _printf_percent
    smtp_client.o(.text) refers to _printf_s.o(.ARM.Collect$$_printf_percent$$00000014) for _printf_s
    smtp_client.o(.text) refers to _printf_str.o(.text) for _printf_str
    smtp_client.o(.text) refers to _printf_u.o(.ARM.Collect$$_printf_percent$$0000000A) for _printf_u
    smtp_client.o(.text) refers to _printf_dec.o(.text) for _printf_int_dec
    smtp_client.o(.text) refers to tls.o(.text) for tlsRead
    smtp_client.o(.text) refers to socket.o(.text) for socketReceive
    smtp_client.o(.text) refers to os_port_freertos.o(.text) for osSuspendAllTasks
    smtp_client.o(.text) refers to __2fprintf.o(.text) for __2fprintf
    smtp_client.o(.text) refers to strlen.o(.text) for strlen
    smtp_client.o(.text) refers to str.o(.text) for strTrimWhitespace
    smtp_client.o(.text) refers to rt_ctype_table.o(.text) for __rt_ctype_table
    smtp_client.o(.text) refers to strtoul.o(.text) for strtoul
    smtp_client.o(.text) refers to __2sprintf.o(.text) for __2sprintf
    smtp_client.o(.text) refers to strcpy.o(.text) for strcpy
    smtp_client.o(.text) refers to base64.o(.text) for base64Encode
    smtp_client.o(.text) refers to retarget.o(.data) for __stderr
    smtp_client.o(.text) refers to strcat.o(.text) for strcat
    smtp_client.o(.text) refers to strtok_r.o(.text) for strtok_r
    smtp_client.o(.text) refers to strcasecmp.o(.text) for strcasecmp
    tls.o(.text) refers to os_port_freertos.o(.text) for osAllocMem
    tls.o(.text) refers to rt_memclr_w.o(.text) for __aeabi_memclr4
    tls.o(.text) refers to dh.o(.text) for dhInit
    tls.o(.text) refers to ecdh.o(.text) for ecdhInit
    tls.o(.text) refers to rsa.o(.text) for rsaInitPublicKey
    tls.o(.text) refers to dsa.o(.text) for dsaInitPublicKey
    tls.o(.text) refers to ec.o(.text) for ecInitDomainParameters
    tls.o(.text) refers to rt_memclr.o(.text) for __aeabi_memclr
    tls.o(.text) refers to strlen.o(.text) for strlen
    tls.o(.text) refers to tolower.o(.text) for tolower
    tls.o(.text) refers to pem.o(.text) for pemReadDhParameters
    tls.o(.text) refers to x509.o(.text) for x509ParseCertificate
    tls.o(.text) refers to tls_misc.o(.text) for tlsGetCertificateType
    tls.o(.text) refers to tls_client.o(.text) for tlsClientHandshake
    tls.o(.text) refers to tls_server.o(.text) for tlsServerHandshake
    tls.o(.text) refers to rt_memcpy_v6.o(.text) for __aeabi_memcpy
    tls.o(.text) refers to tls_record.o(.text) for tlsWriteProtocolData
    tls.o(.text) refers to tls_common.o(.text) for tlsParseAlert
    tls.o(.text) refers to rt_memcpy_w.o(.text) for __aeabi_memcpy4
    tls_cipher_suites.o(.text) refers to tls_cipher_suites.o(.constdata) for tlsSupportedCipherSuites
    tls_cipher_suites.o(.constdata) refers to tls_cipher_suites.o(.conststring) for .conststring
    tls_cipher_suites.o(.constdata) refers to rc4.o(.constdata) for rc4CipherAlgo
    tls_cipher_suites.o(.constdata) refers to md5.o(.constdata) for md5HashAlgo
    tls_cipher_suites.o(.constdata) refers to sha1.o(.constdata) for sha1HashAlgo
    tls_cipher_suites.o(.constdata) refers to des3.o(.constdata) for des3CipherAlgo
    tls_cipher_suites.o(.constdata) refers to aes.o(.constdata) for aesCipherAlgo
    tls_cipher_suites.o(.constdata) refers to sha256.o(.constdata) for sha256HashAlgo
    tls_cipher_suites.o(.constdata) refers to sha384.o(.constdata) for sha384HashAlgo
    tls_cipher_suites.o(.constdata) refers to camellia.o(.constdata) for camelliaCipherAlgo
    tls_client.o(.text) refers to _printf_percent.o(.ARM.Collect$$_printf_percent$$00000000) for _printf_percent
    tls_client.o(.text) refers to _printf_u.o(.ARM.Collect$$_printf_percent$$0000000A) for _printf_u
    tls_client.o(.text) refers to _printf_dec.o(.text) for _printf_int_dec
    tls_client.o(.text) refers to _printf_pad.o(.text) for _printf_pre_padding
    tls_client.o(.text) refers to _printf_x.o(.ARM.Collect$$_printf_percent$$0000000C) for _printf_x
    tls_client.o(.text) refers to _printf_s.o(.ARM.Collect$$_printf_percent$$00000014) for _printf_s
    tls_client.o(.text) refers to _printf_hex_int.o(.text) for _printf_longlong_hex
    tls_client.o(.text) refers to _printf_str.o(.text) for _printf_str
    tls_client.o(.text) refers to os_port_freertos.o(.text) for osSuspendAllTasks
    tls_client.o(.text) refers to __2fprintf.o(.text) for __2fprintf
    tls_client.o(.text) refers to tls_misc.o(.text) for tlsUpdateHandshakeHash
    tls_client.o(.text) refers to endian.o(.text) for _swap16
    tls_client.o(.text) refers to dh.o(.text) for dhCheckPublicKey
    tls_client.o(.text) refers to ec.o(.text) for ecLoadDomainParameters
    tls_client.o(.text) refers to ecdh.o(.text) for ecdhCheckPublicKey
    tls_client.o(.text) refers to md5.o(.text) for md5Init
    tls_client.o(.text) refers to retarget.o(.data) for __stderr
    tls_client.o(.text) refers to sha1.o(.text) for sha1Init
    tls_client.o(.text) refers to rsa.o(.text) for rsassaPkcs1v15Verify
    tls_client.o(.text) refers to debug.o(.text) for debugDisplayArray
    tls_client.o(.text) refers to tls_cipher_suites.o(.text) for tlsGetCipherSuiteName
    tls_client.o(.text) refers to memcmp.o(.text) for memcmp
    tls_client.o(.text) refers to rt_memcpy_v6.o(.text) for __aeabi_memcpy
    tls_client.o(.text) refers to tls_record.o(.text) for tlsReadProtocolData
    tls_client.o(.text) refers to tls_common.o(.text) for tlsParseCertificate
    tls_client.o(.text) refers to pem.o(.text) for pemReadRsaPrivateKey
    tls_client.o(.text) refers to md5.o(.constdata) for md5HashAlgo
    tls_client.o(.text) refers to sha1.o(.constdata) for sha1HashAlgo
    tls_client.o(.text) refers to dsa.o(.text) for dsaInitPrivateKey
    tls_client.o(.text) refers to mpi.o(.text) for mpiInit
    tls_client.o(.text) refers to rt_memmove_v6.o(.text) for __aeabi_memmove
    tls_client.o(.text) refers to date_time.o(.text) for getCurrentUnixTime
    tls_client.o(.text) refers to strlen.o(.text) for strlen
    tls_client.o(.text) refers to tls_cipher_suites.o(.constdata) for tlsSupportedCipherSuites
    tls_server.o(.text) refers to _printf_percent.o(.ARM.Collect$$_printf_percent$$00000000) for _printf_percent
    tls_server.o(.text) refers to _printf_u.o(.ARM.Collect$$_printf_percent$$0000000A) for _printf_u
    tls_server.o(.text) refers to _printf_dec.o(.text) for _printf_int_dec
    tls_server.o(.text) refers to os_port_freertos.o(.text) for osSuspendAllTasks
    tls_server.o(.text) refers to __2fprintf.o(.text) for __2fprintf
    tls_server.o(.text) refers to endian.o(.text) for _swap16
    tls_server.o(.text) refers to tls_misc.o(.text) for tlsFinalizeHandshakeHash
    tls_server.o(.text) refers to rsa.o(.text) for rsassaPkcs1v15Verify
    tls_server.o(.text) refers to pem.o(.text) for pemReadRsaPrivateKey
    tls_server.o(.text) refers to dh.o(.text) for dhCheckPublicKey
    tls_server.o(.text) refers to retarget.o(.data) for __stderr
    tls_server.o(.text) refers to md5.o(.constdata) for md5HashAlgo
    tls_server.o(.text) refers to sha1.o(.constdata) for sha1HashAlgo
    tls_server.o(.text) refers to rt_memmove_v6.o(.text) for __aeabi_memmove
    tls_server.o(.text) refers to ecdh.o(.text) for ecdhCheckPublicKey
    tls_server.o(.text) refers to debug.o(.text) for debugDisplayArray
    tls_server.o(.text) refers to rt_memcpy_v6.o(.text) for __aeabi_memcpy
    tls_server.o(.text) refers to tls_cache.o(.text) for tlsFindCache
    tls_server.o(.text) refers to tls.o(.text) for tlsRestoreSession
    tls_server.o(.text) refers to tls_record.o(.text) for tlsReadProtocolData
    tls_server.o(.text) refers to tls_common.o(.text) for tlsParseCertificate
    tls_server.o(.text) refers to x509.o(.text) for x509ParseCertificate
    tls_server.o(.text) refers to ec.o(.text) for ecLoadDomainParameters
    tls_server.o(.text) refers to sha256.o(.constdata) for sha256HashAlgo
    tls_server.o(.text) refers to sha384.o(.constdata) for sha384HashAlgo
    tls_server.o(.text) refers to md5.o(.text) for md5Init
    tls_server.o(.text) refers to sha1.o(.text) for sha1Init
    tls_server.o(.text) refers to dsa.o(.text) for dsaInitPrivateKey
    tls_server.o(.text) refers to mpi.o(.text) for mpiInit
    tls_server.o(.text) refers to date_time.o(.text) for getCurrentUnixTime
    tls_server.o(.text) refers to tls_cipher_suites.o(.text) for tlsIsEccCipherSuite
    tls_common.o(.text) refers to _printf_percent.o(.ARM.Collect$$_printf_percent$$00000000) for _printf_percent
    tls_common.o(.text) refers to _printf_u.o(.ARM.Collect$$_printf_percent$$0000000A) for _printf_u
    tls_common.o(.text) refers to _printf_dec.o(.text) for _printf_int_dec
    tls_common.o(.text) refers to os_port_freertos.o(.text) for osSuspendAllTasks
    tls_common.o(.text) refers to __2fprintf.o(.text) for __2fprintf
    tls_common.o(.text) refers to debug.o(.text) for debugDisplayArray
    tls_common.o(.text) refers to tls_record.o(.text) for tlsWriteProtocolData
    tls_common.o(.text) refers to tls_cache.o(.text) for tlsRemoveFromCache
    tls_common.o(.text) refers to rt_memclr_w.o(.text) for __aeabi_memclr4
    tls_common.o(.text) refers to pem.o(.text) for pemReadCertificate
    tls_common.o(.text) refers to rt_memcpy_v6.o(.text) for __aeabi_memcpy
    tls_common.o(.text) refers to tls_misc.o(.text) for tlsComputeVerifyData
    tls_common.o(.text) refers to asn1.o(.text) for asn1DumpObject
    tls_common.o(.text) refers to retarget.o(.data) for __stderr
    tls_common.o(.text) refers to x509.o(.text) for x509ParseCertificate
    tls_common.o(.text) refers to strlen.o(.text) for strlen
    tls_common.o(.text) refers to tolower.o(.text) for tolower
    tls_common.o(.text) refers to oid.o(.text) for oidComp
    tls_common.o(.text) refers to ec_curves.o(.text) for ecGetCurveInfo
    tls_common.o(.text) refers to ec.o(.text) for ecLoadDomainParameters
    tls_common.o(.text) refers to rt_memcpy_w.o(.text) for __aeabi_memcpy4
    tls_common.o(.text) refers to rsa.o(.text) for rsaFreePublicKey
    tls_common.o(.text) refers to dsa.o(.text) for dsaFreePublicKey
    tls_common.o(.text) refers to memcmp.o(.text) for memcmp
    tls_common.o(.text) refers to rsa.o(.constdata) for RSA_ENCRYPTION_OID
    tls_common.o(.text) refers to dsa.o(.constdata) for DSA_OID
    tls_common.o(.text) refers to ec.o(.constdata) for EC_PUBLIC_KEY_OID
    tls_record.o(.text) refers to endian.o(.text) for _swap16
    tls_record.o(.text) refers to ssl_common.o(.text) for sslComputeMac
    tls_record.o(.text) refers to hmac.o(.text) for hmacInit
    tls_record.o(.text) refers to rt_memmove_v6.o(.text) for __aeabi_memmove
    tls_record.o(.text) refers to cipher_mode_cbc.o(.text) for cbcEncrypt
    tls_record.o(.text) refers to rt_memcpy_v6.o(.text) for __aeabi_memcpy
    tls_record.o(.text) refers to cipher_mode_ccm.o(.text) for ccmEncrypt
    tls_record.o(.text) refers to cipher_mode_gcm.o(.text) for gcmEncrypt
    tls_record.o(.text) refers to tls_io.o(.text) for tlsIoWrite
    tls_record.o(.text) refers to tls_misc.o(.text) for tlsUpdateHandshakeHash
    tls_record.o(.text) refers to memcmp.o(.text) for memcmp
    tls_io.o(.text) refers to socket.o(.text) for socketSend
    tls_misc.o(.text) refers to tls_common.o(.text) for tlsSendAlert
    tls_misc.o(.text) refers to os_port_freertos.o(.text) for osSuspendAllTasks
    tls_misc.o(.text) refers to __2fprintf.o(.text) for __2fprintf
    tls_misc.o(.text) refers to tls_cipher_suites.o(.text) for tlsGetNumSupportedCipherSuites
    tls_misc.o(.text) refers to endian.o(.text) for _swap16
    tls_misc.o(.text) refers to sha1.o(.text) for sha1Update
    tls_misc.o(.text) refers to md5.o(.text) for md5Update
    tls_misc.o(.text) refers to retarget.o(.data) for __stderr
    tls_misc.o(.text) refers to tls_cipher_suites.o(.constdata) for tlsSupportedCipherSuites
    tls_misc.o(.text) refers to sha256.o(.constdata) for sha256HashAlgo
    tls_misc.o(.text) refers to md5.o(.constdata) for md5HashAlgo
    tls_misc.o(.text) refers to sha1.o(.constdata) for sha1HashAlgo
    tls_misc.o(.text) refers to sha224.o(.constdata) for sha224HashAlgo
    tls_misc.o(.text) refers to sha384.o(.constdata) for sha384HashAlgo
    tls_misc.o(.text) refers to sha512.o(.constdata) for sha512HashAlgo
    tls_misc.o(.text) refers to ec_curves.o(.constdata) for secp160r1Curve
    tls_misc.o(.text) refers to rt_memcpy_v6.o(.text) for __aeabi_memcpy
    tls_misc.o(.text) refers to strlen.o(.text) for strlen
    tls_misc.o(.text) refers to hmac.o(.text) for hmacInit
    tls_misc.o(.text) refers to ssl_common.o(.constdata) for sslPad1
    tls_misc.o(.text) refers to mpi.o(.text) for mpiGetByteLength
    tls_misc.o(.text) refers to ec.o(.text) for ecExport
    tls_misc.o(.text) refers to aeabi_memset.o(.text) for __aeabi_memset
    tls_misc.o(.text) refers to rsa.o(.text) for rsasp1
    tls_misc.o(.text) refers to memcmp.o(.text) for memcmp
    tls_misc.o(.text) refers to dsa.o(.text) for dsaInitSignature
    tls_misc.o(.text) refers to ecdsa.o(.text) for ecdsaInitSignature
    tls_misc.o(.text) refers to ssl_common.o(.text) for sslExpandKey
    tls_misc.o(.text) refers to rt_memclr_w.o(.text) for __aeabi_memclr4
    tls_misc.o(.text) refers to pem.o(.text) for pemReadCertificate
    tls_misc.o(.text) refers to x509.o(.text) for x509ParseCertificate
    tls_misc.o(.text) refers to oid.o(.text) for oidComp
    tls_misc.o(.text) refers to rsa.o(.constdata) for RSA_ENCRYPTION_OID
    tls_misc.o(.text) refers to dsa.o(.constdata) for DSA_OID
    tls_misc.o(.text) refers to ec.o(.constdata) for EC_PUBLIC_KEY_OID
    tls_misc.o(.text) refers to ecdsa.o(.constdata) for ECDSA_WITH_SHA1_OID
    tls_misc.o(.text) refers to tls_misc.o(.data) for label
    tls_misc.o(.data) refers to tls_misc.o(.conststring) for .conststring
    tls_cache.o(.text) refers to os_port_freertos.o(.text) for osAllocMem
    tls_cache.o(.text) refers to rt_memclr_w.o(.text) for __aeabi_memclr4
    tls_cache.o(.text) refers to memcmp.o(.text) for memcmp
    tls_cache.o(.text) refers to tls.o(.text) for tlsSaveSession
    ssl_common.o(.text) refers to os_port_freertos.o(.text) for osAllocMem
    ssl_common.o(.text) refers to aeabi_memset.o(.text) for __aeabi_memset
    ssl_common.o(.text) refers to sha1.o(.text) for sha1Init
    ssl_common.o(.text) refers to md5.o(.text) for md5Init
    ssl_common.o(.text) refers to rt_memcpy_v6.o(.text) for __aeabi_memcpy
    ssl_common.o(.text) refers to md5.o(.constdata) for md5HashAlgo
    ssl_common.o(.text) refers to sha1.o(.constdata) for sha1HashAlgo
    ssl_common.o(.text) refers to ssl_common.o(.constdata) for sslPad1
    base64.o(.text) refers to base64.o(.constdata) for base64EncTable
    md5.o(.text) refers to rt_memcpy_v6.o(.text) for __aeabi_memcpy
    md5.o(.text) refers to os_port_freertos.o(.text) for osAllocMem
    md5.o(.text) refers to md5.o(.constdata) for k
    md5.o(.constdata) refers to md5.o(.conststring) for .conststring
    md5.o(.constdata) refers to md5.o(.text) for md5Compute
    sha1.o(.text) refers to endian.o(.text) for _swap32
    sha1.o(.text) refers to rt_memcpy_v6.o(.text) for __aeabi_memcpy
    sha1.o(.text) refers to os_port_freertos.o(.text) for osAllocMem
    sha1.o(.text) refers to sha1.o(.constdata) for k
    sha1.o(.constdata) refers to sha1.o(.conststring) for .conststring
    sha1.o(.constdata) refers to sha1.o(.text) for sha1Compute
    sha224.o(.text) refers to sha256.o(.text) for sha256Final
    sha224.o(.text) refers to rt_memcpy_v6.o(.text) for __aeabi_memcpy
    sha224.o(.text) refers to os_port_freertos.o(.text) for osAllocMem
    sha224.o(.constdata) refers to sha224.o(.conststring) for .conststring
    sha224.o(.constdata) refers to sha224.o(.text) for sha224Compute
    sha256.o(.text) refers to endian.o(.text) for _swap32
    sha256.o(.text) refers to rt_memcpy_v6.o(.text) for __aeabi_memcpy
    sha256.o(.text) refers to os_port_freertos.o(.text) for osAllocMem
    sha256.o(.text) refers to sha256.o(.constdata) for k
    sha256.o(.constdata) refers to sha256.o(.conststring) for .conststring
    sha256.o(.constdata) refers to sha256.o(.text) for sha256Compute
    sha384.o(.text) refers to sha512.o(.text) for sha512Final
    sha384.o(.text) refers to rt_memcpy_v6.o(.text) for __aeabi_memcpy
    sha384.o(.text) refers to os_port_freertos.o(.text) for osAllocMem
    sha384.o(.constdata) refers to sha384.o(.conststring) for .conststring
    sha384.o(.constdata) refers to sha384.o(.text) for sha384Compute
    sha512.o(.text) refers to endian.o(.text) for _swap64
    sha512.o(.text) refers to rt_memcpy_v6.o(.text) for __aeabi_memcpy
    sha512.o(.text) refers to os_port_freertos.o(.text) for osAllocMem
    sha512.o(.text) refers to sha512.o(.constdata) for k
    sha512.o(.constdata) refers to sha512.o(.conststring) for .conststring
    sha512.o(.constdata) refers to sha512.o(.text) for sha512Compute
    hmac.o(.text) refers to rt_memcpy_v6.o(.text) for __aeabi_memcpy
    hmac.o(.text) refers to rt_memclr.o(.text) for __aeabi_memclr
    hmac.o(.text) refers to os_port_freertos.o(.text) for osAllocMem
    rc4.o(.constdata) refers to rc4.o(.conststring) for .conststring
    rc4.o(.constdata) refers to rc4.o(.text) for rc4Init
    idea.o(.constdata) refers to idea.o(.conststring) for .conststring
    idea.o(.constdata) refers to idea.o(.text) for ideaInit
    des.o(.text) refers to des.o(.constdata) for sp2
    des.o(.constdata) refers to des.o(.conststring) for .conststring
    des.o(.constdata) refers to des.o(.text) for desInit
    des3.o(.text) refers to des.o(.text) for desInit
    des3.o(.constdata) refers to des3.o(.conststring) for .conststring
    des3.o(.constdata) refers to des3.o(.text) for des3Init
    aes.o(.text) refers to aes.o(.constdata) for sbox
    aes.o(.constdata) refers to aes.o(.conststring) for .conststring
    aes.o(.constdata) refers to aes.o(.text) for aesInit
    camellia.o(.text) refers to rt_memclr_w.o(.text) for __aeabi_memclr4
    camellia.o(.text) refers to rt_memcpy_v6.o(.text) for __aeabi_memcpy
    camellia.o(.text) refers to endian.o(.text) for _swap32
    camellia.o(.text) refers to camellia.o(.constdata) for sigma
    camellia.o(.constdata) refers to camellia.o(.conststring) for .conststring
    camellia.o(.constdata) refers to camellia.o(.text) for camelliaInit
    seed.o(.text) refers to seed.o(.constdata) for kc
    seed.o(.constdata) refers to seed.o(.conststring) for .conststring
    seed.o(.constdata) refers to seed.o(.text) for seedInit
    aria.o(.text) refers to aria.o(.constdata) for sb1
    aria.o(.text) refers to rt_memclr_w.o(.text) for __aeabi_memclr4
    aria.o(.text) refers to rt_memcpy_v6.o(.text) for __aeabi_memcpy
    aria.o(.text) refers to endian.o(.text) for _swap32
    aria.o(.constdata) refers to aria.o(.conststring) for .conststring
    aria.o(.constdata) refers to aria.o(.text) for ariaInit
    cipher_mode_cbc.o(.text) refers to rt_memcpy_v6.o(.text) for __aeabi_memcpy
    cipher_mode_ccm.o(.text) refers to rt_memcpy_v6.o(.text) for __aeabi_memcpy
    cipher_mode_ccm.o(.text) refers to rt_memclr.o(.text) for __aeabi_memclr
    cipher_mode_ccm.o(.text) refers to rt_memcpy_w.o(.text) for __aeabi_memcpy4
    cipher_mode_ccm.o(.text) refers to memcmp.o(.text) for memcmp
    cipher_mode_gcm.o(.text) refers to rt_memcpy_v6.o(.text) for __aeabi_memcpy
    cipher_mode_gcm.o(.text) refers to rt_memcpy_w.o(.text) for __aeabi_memcpy4
    cipher_mode_gcm.o(.text) refers to memcmp.o(.text) for memcmp
    poly1305.o(.text) refers to rt_memcpy_v6.o(.text) for __aeabi_memcpy
    chacha20_poly1305.o(.text) refers to chacha.o(.text) for chachaInit
    chacha20_poly1305.o(.text) refers to poly1305.o(.text) for poly1305Init
    chacha20_poly1305.o(.text) refers to rt_memclr_w.o(.text) for __aeabi_memclr4
    chacha20_poly1305.o(.text) refers to memcmp.o(.text) for memcmp
    dh.o(.text) refers to mpi.o(.text) for mpiInit
    rsa.o(.text) refers to mpi.o(.text) for mpiInit
    rsa.o(.text) refers to rt_memcpy_v6.o(.text) for __aeabi_memcpy
    rsa.o(.text) refers to os_port_freertos.o(.text) for osAllocMem
    rsa.o(.text) refers to aeabi_memset.o(.text) for __aeabi_memset
    rsa.o(.text) refers to asn1.o(.text) for asn1ReadTag
    rsa.o(.text) refers to oid.o(.text) for oidComp
    rsa.o(.text) refers to memcmp.o(.text) for memcmp
    dsa.o(.text) refers to mpi.o(.text) for mpiInit
    dsa.o(.text) refers to asn1.o(.text) for asn1WriteTag
    ec.o(.text) refers to mpi.o(.text) for mpiInit
    ec_curves.o(.text) refers to mpi.o(.text) for mpiInit
    ec_curves.o(.text) refers to rt_memcpy_w.o(.text) for __aeabi_memcpy4
    ec_curves.o(.text) refers to rt_memclr_w.o(.text) for __aeabi_memclr4
    ec_curves.o(.text) refers to oid.o(.text) for oidComp
    ec_curves.o(.text) refers to ec_curves.o(.constdata) for SECP112R1_OID
    ec_curves.o(.constdata) refers to ec_curves.o(.conststring) for .conststring
    ec_curves.o(.constdata) refers to ec_curves.o(.text) for secp128r1Mod
    ecdh.o(.text) refers to ec.o(.text) for ecInitDomainParameters
    ecdh.o(.text) refers to mpi.o(.text) for mpiInit
    ecdsa.o(.text) refers to mpi.o(.text) for mpiInit
    ecdsa.o(.text) refers to asn1.o(.text) for asn1WriteTag
    ecdsa.o(.text) refers to ec.o(.text) for ecInit
    mpi.o(.text) refers to _printf_percent.o(.ARM.Collect$$_printf_percent$$00000000) for _printf_percent
    mpi.o(.text) refers to _printf_s.o(.ARM.Collect$$_printf_percent$$00000014) for _printf_s
    mpi.o(.text) refers to _printf_str.o(.text) for _printf_str
    mpi.o(.text) refers to _printf_pad.o(.text) for _printf_pre_padding
    mpi.o(.text) refers to _printf_x.o(.ARM.Collect$$_printf_percent$$0000000C) for _printf_x
    mpi.o(.text) refers to _printf_hex_int.o(.text) for _printf_longlong_hex
    mpi.o(.text) refers to rt_memclr_w.o(.text) for __aeabi_memclr4
    mpi.o(.text) refers to os_port_freertos.o(.text) for osFreeMem
    mpi.o(.text) refers to rt_memcpy_w.o(.text) for __aeabi_memcpy4
    mpi.o(.text) refers to rt_memclr.o(.text) for __aeabi_memclr
    mpi.o(.text) refers to __2fprintf.o(.text) for __2fprintf
    asn1.o(.text) refers to rt_memmove_v6.o(.text) for __aeabi_memmove
    asn1.o(.text) refers to oid.o(.text) for oidComp
    oid.o(.text) refers to _printf_percent.o(.ARM.Collect$$_printf_percent$$00000000) for _printf_percent
    oid.o(.text) refers to _printf_u.o(.ARM.Collect$$_printf_percent$$0000000A) for _printf_u
    oid.o(.text) refers to _printf_dec.o(.text) for _printf_int_dec
    oid.o(.text) refers to rt_ctype_table.o(.text) for __rt_ctype_table
    oid.o(.text) refers to __2sprintf.o(.text) for __2sprintf
    oid.o(.text) refers to strcpy.o(.text) for strcpy
    oid.o(.text) refers to oid.o(.bss) for buffer
    x509.o(.text) refers to asn1.o(.text) for asn1ReadTag
    x509.o(.text) refers to oid.o(.text) for oidComp
    x509.o(.text) refers to x509.o(.constdata) for X509_BASIC_CONSTRAINTS_OID
    x509.o(.text) refers to rsa.o(.constdata) for RSA_ENCRYPTION_OID
    x509.o(.text) refers to dsa.o(.constdata) for DSA_OID
    x509.o(.text) refers to ec.o(.constdata) for EC_PUBLIC_KEY_OID
    x509.o(.text) refers to memcmp.o(.text) for memcmp
    x509.o(.text) refers to rt_ctype_table.o(.text) for __rt_ctype_table
    x509.o(.text) refers to rt_memclr_w.o(.text) for __aeabi_memclr4
    x509.o(.text) refers to mpi.o(.text) for mpiReadRaw
    x509.o(.text) refers to date_time.o(.text) for getCurrentUnixTime
    x509.o(.text) refers to os_port_freertos.o(.text) for osAllocMem
    x509.o(.text) refers to rsa.o(.text) for rsaInitPublicKey
    x509.o(.text) refers to dsa.o(.text) for dsaInitPublicKey
    x509.o(.text) refers to ec.o(.text) for ecInitDomainParameters
    x509.o(.text) refers to ecdsa.o(.text) for ecdsaInitSignature
    x509.o(.text) refers to ec_curves.o(.text) for ecGetCurveInfo
    x509.o(.text) refers to md5.o(.constdata) for md5HashAlgo
    x509.o(.text) refers to sha1.o(.constdata) for sha1HashAlgo
    x509.o(.text) refers to sha256.o(.constdata) for sha256HashAlgo
    x509.o(.text) refers to sha384.o(.constdata) for sha384HashAlgo
    x509.o(.text) refers to sha512.o(.constdata) for sha512HashAlgo
    x509.o(.text) refers to sha224.o(.constdata) for sha224HashAlgo
    x509.o(.text) refers to ecdsa.o(.constdata) for ECDSA_WITH_SHA1_OID
    pem.o(.text) refers to os_port_freertos.o(.text) for osAllocMem
    pem.o(.text) refers to rt_memcpy_v6.o(.text) for __aeabi_memcpy
    pem.o(.text) refers to base64.o(.text) for base64Decode
    pem.o(.text) refers to asn1.o(.text) for asn1DumpObject
    pem.o(.text) refers to mpi.o(.text) for mpiReadRaw
    pem.o(.text) refers to rsa.o(.text) for rsaFreePrivateKey
    pem.o(.text) refers to dsa.o(.text) for dsaFreePrivateKey
    pem.o(.text) refers to ec_curves.o(.text) for ecGetCurveInfo
    pem.o(.text) refers to ec.o(.text) for ecLoadDomainParameters
    pem.o(.text) refers to ec.o(.constdata) for EC_PUBLIC_KEY_OID
    yarrow.o(.text) refers to rt_memclr_w.o(.text) for __aeabi_memclr4
    yarrow.o(.text) refers to os_port_freertos.o(.text) for osCreateMutex
    yarrow.o(.text) refers to sha256.o(.text) for sha256Init
    yarrow.o(.text) refers to aes.o(.text) for aesInit
    yarrow.o(.text) refers to rt_memcpy_v6.o(.text) for __aeabi_memcpy
    yarrow.o(.constdata) refers to yarrow.o(.conststring) for .conststring
    yarrow.o(.constdata) refers to yarrow.o(.text) for yarrowInit
    port.o(.emb_text) refers to tasks.o(.text) for vTaskSwitchContext
    port.o(.emb_text) refers to tasks.o(.data) for pxCurrentTCB
    port.o(.text) refers to port.o(.emb_text) for ulPortSetInterruptMask
    port.o(.text) refers to tasks.o(.text) for xTaskIncrementTick
    port.o(.text) refers to system_stm32f2xx.o(.data) for SystemCoreClock
    port.o(.text) refers to port.o(.data) for uxCriticalNesting
    queue.o(.text) refers to port.o(.text) for vPortEnterCritical
    queue.o(.text) refers to tasks.o(.text) for xTaskRemoveFromEventList
    queue.o(.text) refers to list.o(.text) for vListInitialise
    queue.o(.text) refers to heap_3.o(.text) for pvPortMalloc
    queue.o(.text) refers to rt_memcpy_v6.o(.text) for __aeabi_memcpy
    queue.o(.text) refers to port.o(.emb_text) for ulPortSetInterruptMask
    tasks.o(.text) refers to list.o(.text) for vListInitialise
    tasks.o(.text) refers to heap_3.o(.text) for pvPortMalloc
    tasks.o(.text) refers to aeabi_memset.o(.text) for __aeabi_memset
    tasks.o(.text) refers to port.o(.text) for pxPortInitialiseStack
    tasks.o(.text) refers to tasks.o(.bss) for pxReadyTasksLists
    tasks.o(.text) refers to tasks.o(.data) for pxDelayedTaskList
    tasks.o(.text) refers to port.o(.emb_text) for ulPortSetInterruptMask
    heap_3.o(.text) refers to tasks.o(.text) for vTaskSuspendAll
    heap_3.o(.text) refers to h1_alloc.o(.text) for malloc
    heap_3.o(.text) refers to h1_free.o(.text) for free
    stm322xg_eval.o(.text) refers to stm32f2xx_rcc.o(.text) for RCC_AHB1PeriphClockCmd
    stm322xg_eval.o(.text) refers to stm32f2xx_gpio.o(.text) for GPIO_Init
    stm322xg_eval.o(.text) refers to stm32f2xx_syscfg.o(.text) for SYSCFG_EXTILineConfig
    stm322xg_eval.o(.text) refers to stm32f2xx_exti.o(.text) for EXTI_Init
    stm322xg_eval.o(.text) refers to misc.o(.text) for NVIC_Init
    stm322xg_eval.o(.text) refers to stm32f2xx_usart.o(.text) for USART_Init
    stm322xg_eval.o(.text) refers to stm32f2xx_sdio.o(.text) for SDIO_ClockCmd
    stm322xg_eval.o(.text) refers to stm32f2xx_dma.o(.text) for DMA_ClearFlag
    stm322xg_eval.o(.text) refers to stm322xg_eval.o(.constdata) for GPIO_CLK
    stm322xg_eval.o(.text) refers to stm322xg_eval.o(.data) for GPIO_PORT
    stm322xg_eval.o(.text) refers to stm32f2xx_i2c.o(.text) for I2C_Cmd
    stm322xg_eval.o(.text) refers to stm322xg_eval.o(.bss) for sEEDMA_InitStructure
    stm322xg_eval_fsmc_sram.o(.text) refers to stm32f2xx_rcc.o(.text) for RCC_AHB1PeriphClockCmd
    stm322xg_eval_fsmc_sram.o(.text) refers to stm32f2xx_gpio.o(.text) for GPIO_PinAFConfig
    stm322xg_eval_fsmc_sram.o(.text) refers to stm32f2xx_fsmc.o(.text) for FSMC_NORSRAMInit
    stm322xg_eval_ioe.o(.text) refers to stm32f2xx_rcc.o(.text) for RCC_AHB1PeriphClockCmd
    stm322xg_eval_ioe.o(.text) refers to stm32f2xx_dma.o(.text) for DMA_DeInit
    stm322xg_eval_ioe.o(.text) refers to stm32f2xx_i2c.o(.text) for I2C_GenerateSTART
    stm322xg_eval_ioe.o(.text) refers to stm322xg_eval_ioe.o(.data) for IOE_TimeOut
    stm322xg_eval_ioe.o(.text) refers to stm32f2xx_gpio.o(.text) for GPIO_PinAFConfig
    stm322xg_eval_ioe.o(.text) refers to stm32f2xx_syscfg.o(.text) for SYSCFG_EXTILineConfig
    stm322xg_eval_ioe.o(.text) refers to stm32f2xx_exti.o(.text) for EXTI_Init
    stm322xg_eval_ioe.o(.text) refers to misc.o(.text) for NVIC_Init
    stm322xg_eval_lcd.o(.text) refers to stm32f2xx_fsmc.o(.text) for FSMC_NORSRAMCmd
    stm322xg_eval_lcd.o(.text) refers to stm32f2xx_gpio.o(.text) for GPIO_Init
    stm322xg_eval_lcd.o(.text) refers to stm32f2xx_rcc.o(.text) for RCC_AHB3PeriphClockCmd
    stm322xg_eval_lcd.o(.text) refers to stm322xg_eval_lcd.o(.data) for LCD_Currentfonts
    stm322xg_eval_lcd.o(.text) refers to dflt_clz.o(x$fpl$dfltu) for __aeabi_ui2d
    stm322xg_eval_lcd.o(.text) refers to dflt_clz.o(x$fpl$dflt) for __aeabi_i2d
    stm322xg_eval_lcd.o(.text) refers to dleqf.o(x$fpl$dleqf) for __aeabi_cdcmple
    stm322xg_eval_lcd.o(.text) refers to drleqf.o(x$fpl$drleqf) for __aeabi_cdrcmple
    stm322xg_eval_lcd.o(.data) refers to stm322xg_eval_lcd.o(.constdata) for ASCII16x24_Table
    stm32f2xx_adc.o(.text) refers to stm32f2xx_rcc.o(.text) for RCC_APB2PeriphResetCmd
    stm32f2xx_can.o(.text) refers to stm32f2xx_rcc.o(.text) for RCC_APB1PeriphResetCmd
    stm32f2xx_cryp.o(.text) refers to stm32f2xx_rcc.o(.text) for RCC_AHB2PeriphResetCmd
    stm32f2xx_cryp_aes.o(.text) refers to stm32f2xx_cryp.o(.text) for CRYP_KeyStructInit
    stm32f2xx_cryp_des.o(.text) refers to stm32f2xx_cryp.o(.text) for CRYP_KeyStructInit
    stm32f2xx_cryp_tdes.o(.text) refers to stm32f2xx_cryp.o(.text) for CRYP_KeyStructInit
    stm32f2xx_dac.o(.text) refers to stm32f2xx_rcc.o(.text) for RCC_APB1PeriphResetCmd
    stm32f2xx_gpio.o(.text) refers to stm32f2xx_rcc.o(.text) for RCC_AHB1PeriphResetCmd
    stm32f2xx_hash.o(.text) refers to stm32f2xx_rcc.o(.text) for RCC_AHB2PeriphResetCmd
    stm32f2xx_hash_md5.o(.text) refers to stm32f2xx_hash.o(.text) for HASH_DeInit
    stm32f2xx_hash_sha1.o(.text) refers to stm32f2xx_hash.o(.text) for HASH_DeInit
    stm32f2xx_i2c.o(.text) refers to stm32f2xx_rcc.o(.text) for RCC_APB1PeriphResetCmd
    stm32f2xx_pwr.o(.text) refers to stm32f2xx_rcc.o(.text) for RCC_APB1PeriphResetCmd
    stm32f2xx_rcc.o(.text) refers to stm32f2xx_rcc.o(.data) for APBAHBPrescTable
    stm32f2xx_rng.o(.text) refers to stm32f2xx_rcc.o(.text) for RCC_AHB2PeriphResetCmd
    stm32f2xx_sdio.o(.text) refers to stm32f2xx_rcc.o(.text) for RCC_APB2PeriphResetCmd
    stm32f2xx_spi.o(.text) refers to stm32f2xx_rcc.o(.text) for RCC_APB2PeriphResetCmd
    stm32f2xx_syscfg.o(.text) refers to stm32f2xx_rcc.o(.text) for RCC_APB2PeriphResetCmd
    stm32f2xx_tim.o(.text) refers to stm32f2xx_rcc.o(.text) for RCC_APB2PeriphResetCmd
    stm32f2xx_usart.o(.text) refers to stm32f2xx_rcc.o(.text) for RCC_APB2PeriphResetCmd
    stm32f2xx_wwdg.o(.text) refers to stm32f2xx_rcc.o(.text) for RCC_APB1PeriphResetCmd
    rt_ctype_table.o(.text) refers to rt_locale_intlibspace.o(.text) for __rt_locale
    rt_ctype_table.o(.text) refers to lc_ctype_c.o(locale$$code) for _get_lc_ctype
    malloc.o(.text) refers (Special) to hguard.o(.text) for __heap$guard
    malloc.o(.text) refers (Special) to init_alloc.o(.text) for _init_alloc
    malloc.o(.text) refers to rt_heap_descriptor_intlibspace.o(.text) for __rt_heap_descriptor
    malloc.o(.text) refers to heapstubs.o(.text) for __Heap_Alloc
    free.o(.text) refers (Special) to hguard.o(.text) for __heap$guard
    free.o(.text) refers to rt_heap_descriptor_intlibspace.o(.text) for __rt_heap_descriptor
    free.o(.text) refers to heapstubs.o(.text) for __Heap_Free
    h1_alloc.o(.text) refers (Special) to h1_init.o(.text) for __Heap_Initialize
    h1_alloc.o(.text) refers to rt_heap_descriptor_intlibspace.o(.text) for __rt_heap_descriptor
    h1_alloc.o(.text) refers to init_alloc.o(.text) for __Heap_Full
    h1_free.o(.text) refers to rt_heap_descriptor_intlibspace.o(.text) for __rt_heap_descriptor
    h1_alloc_mt.o(.text) refers (Special) to h1_init.o(.text) for __Heap_Initialize
    h1_alloc_mt.o(.text) refers to init_alloc.o(.text) for __Heap_Full
    h1_alloc_mt.o(.text) refers to rt_heap_descriptor_intlibspace.o(.text) for __rt_heap_descriptor
    h1_free_mt.o(.text) refers to rt_heap_descriptor_intlibspace.o(.text) for __rt_heap_descriptor
    heap2.o(i._FDIterate) refers to heap2.o(.conststring) for .conststring
    heap2.o(i.___Heap_ProvideMemory$realtime) refers to fdtree.o(i._FDTree_Delete) for _FDTree_Delete
    heap2.o(i.___Heap_ProvideMemory$realtime) refers to fdtree.o(i._FDTree_Insert) for _FDTree_Insert
    heap2.o(i.___Heap_Stats$realtime) refers to heap2.o(i._Heap2_StatsIterate) for _Heap2_StatsIterate
    heap2.o(i.___Heap_Valid$realtime) refers to heap2.o(i._FDIterate) for _FDIterate
    heap2.o(i.___Heap_Valid$realtime) refers to heap2.o(.conststring) for .conststring
    heap2.o(i._free$realtime) refers to rt_heap_descriptor_intlibspace.o(.text) for __rt_heap_descriptor
    heap2.o(i._free$realtime) refers to fdtree.o(i._FDTree_Delete) for _FDTree_Delete
    heap2.o(i._free$realtime) refers to fdtree.o(i._FDTree_Insert) for _FDTree_Insert
    heap2.o(i._malloc$realtime) refers to rt_heap_descriptor_intlibspace.o(.text) for __rt_heap_descriptor
    heap2.o(i._malloc$realtime) refers to fdtree.o(i._FDTree_FindFirst) for _FDTree_FindFirst
    heap2.o(i._malloc$realtime) refers to init_alloc.o(.text) for __Heap_Full
    heap2.o(i._malloc$realtime) refers to fdtree.o(i._FDTree_RemoveNode) for _FDTree_RemoveNode
    heap2.o(i._malloc$realtime) refers to fdtree.o(i._FDTree_Insert) for _FDTree_Insert
    heap2.o(i._posix_memalign$realtime) refers to rt_heap_descriptor_intlibspace.o(.text) for __rt_heap_descriptor
    heap2.o(i._posix_memalign$realtime) refers to fdtree.o(i._FDTree_FindFirst) for _FDTree_FindFirst
    heap2.o(i._posix_memalign$realtime) refers to init_alloc.o(.text) for __Heap_Full
    heap2.o(i._posix_memalign$realtime) refers to fdtree.o(i._FDTree_RemoveNode) for _FDTree_RemoveNode
    heap2.o(i._posix_memalign$realtime) refers to fdtree.o(i._FDTree_Insert) for _FDTree_Insert
    heap2.o(i._realloc$realtime) refers to rt_heap_descriptor_intlibspace.o(.text) for __rt_heap_descriptor
    heap2.o(i._realloc$realtime) refers to fdtree.o(i._FDTree_Insert) for _FDTree_Insert
    heap2.o(i._realloc$realtime) refers to h1_free.o(.text) for free
    heap2.o(i._realloc$realtime) refers to h1_alloc.o(.text) for malloc
    heap2.o(i._realloc$realtime) refers to fdtree.o(i._FDTree_Delete) for _FDTree_Delete
    heap2.o(i._realloc$realtime) refers to rt_memcpy_w.o(.text) for __aeabi_memcpy4
    heap2mt.o(i._FDIterate) refers to heap2mt.o(.conststring) for .conststring
    heap2mt.o(i.___Heap_Initialize$realtime$concurrent) refers to mutex_dummy.o(.text) for _mutex_initialize
    heap2mt.o(i.___Heap_ProvideMemory$realtime$concurrent) refers to fdtree.o(i._FDTree_Delete) for _FDTree_Delete
    heap2mt.o(i.___Heap_ProvideMemory$realtime$concurrent) refers to fdtree.o(i._FDTree_Insert) for _FDTree_Insert
    heap2mt.o(i.___Heap_Stats$realtime$concurrent) refers to heap2mt.o(i._Heap2_StatsIterate) for _Heap2_StatsIterate
    heap2mt.o(i.___Heap_Valid$realtime$concurrent) refers to heap2mt.o(i._FDIterate) for _FDIterate
    heap2mt.o(i.___Heap_Valid$realtime$concurrent) refers to heap2mt.o(.conststring) for .conststring
    heap2mt.o(i._free$realtime$concurrent) refers to rt_heap_descriptor_intlibspace.o(.text) for __rt_heap_descriptor
    heap2mt.o(i._free$realtime$concurrent) refers to fdtree.o(i._FDTree_Delete) for _FDTree_Delete
    heap2mt.o(i._free$realtime$concurrent) refers to fdtree.o(i._FDTree_Insert) for _FDTree_Insert
    heap2mt.o(i._malloc$realtime$concurrent) refers to rt_heap_descriptor_intlibspace.o(.text) for __rt_heap_descriptor
    heap2mt.o(i._malloc$realtime$concurrent) refers to fdtree.o(i._FDTree_FindFirst) for _FDTree_FindFirst
    heap2mt.o(i._malloc$realtime$concurrent) refers to init_alloc.o(.text) for __Heap_Full
    heap2mt.o(i._malloc$realtime$concurrent) refers to fdtree.o(i._FDTree_RemoveNode) for _FDTree_RemoveNode
    heap2mt.o(i._malloc$realtime$concurrent) refers to fdtree.o(i._FDTree_Insert) for _FDTree_Insert
    heap2mt.o(i._posix_memalign$realtime$concurrent) refers to rt_heap_descriptor_intlibspace.o(.text) for __rt_heap_descriptor
    heap2mt.o(i._posix_memalign$realtime$concurrent) refers to fdtree.o(i._FDTree_FindFirst) for _FDTree_FindFirst
    heap2mt.o(i._posix_memalign$realtime$concurrent) refers to init_alloc.o(.text) for __Heap_Full
    heap2mt.o(i._posix_memalign$realtime$concurrent) refers to fdtree.o(i._FDTree_RemoveNode) for _FDTree_RemoveNode
    heap2mt.o(i._posix_memalign$realtime$concurrent) refers to fdtree.o(i._FDTree_Insert) for _FDTree_Insert
    heap2mt.o(i._realloc$realtime$concurrent) refers to rt_heap_descriptor_intlibspace.o(.text) for __rt_heap_descriptor
    heap2mt.o(i._realloc$realtime$concurrent) refers to fdtree.o(i._FDTree_Insert) for _FDTree_Insert
    heap2mt.o(i._realloc$realtime$concurrent) refers to h1_free.o(.text) for free
    heap2mt.o(i._realloc$realtime$concurrent) refers to h1_alloc.o(.text) for malloc
    heap2mt.o(i._realloc$realtime$concurrent) refers to fdtree.o(i._FDTree_Delete) for _FDTree_Delete
    heap2mt.o(i._realloc$realtime$concurrent) refers to rt_memcpy_w.o(.text) for __aeabi_memcpy4
    tolower.o(.text) refers to rt_ctype_table.o(.text) for __rt_ctype_table
    toupper.o(.text) refers to rt_ctype_table.o(.text) for __rt_ctype_table
    __2printf.o(.text) refers to _printf_char_file.o(.text) for _printf_char_file
    __2printf.o(.text) refers to retarget.o(.data) for __stdout
    __2fprintf.o(.text) refers to _printf_char_file.o(.text) for _printf_char_file
    __2sprintf.o(.text) refers to _printf_char_common.o(.text) for _printf_char_common
    __2sprintf.o(.text) refers to _sputc.o(.text) for _sputc
    noretval__2printf.o(.text) refers to _printf_char_file.o(.text) for _printf_char_file
    noretval__2printf.o(.text) refers to retarget.o(.data) for __stdout
    noretval__2fprintf.o(.text) refers to _printf_char_file.o(.text) for _printf_char_file
    noretval__2sprintf.o(.text) refers to _printf_char_common.o(.text) for _printf_char_common
    noretval__2sprintf.o(.text) refers to _sputc.o(.text) for _sputc
    __printf.o(.text) refers to _printf_percent.o(.ARM.Collect$$_printf_percent$$00000000) for _printf_percent
    _printf_str.o(.text) refers (Special) to _printf_char.o(.text) for _printf_cs_common
    _printf_str.o(.text) refers (Weak) to _printf_pad.o(.text) for _printf_pre_padding
    _printf_str.o(.text) refers (Weak) to _printf_pad.o(.text) for _printf_post_padding
    _printf_dec.o(.text) refers to _printf_intcommon.o(.text) for _printf_int_common
    _printf_hex_ll.o(.text) refers to _printf_intcommon.o(.text) for _printf_int_common
    _printf_hex_ll.o(.text) refers to _printf_hex_ll.o(.constdata) for .constdata
    _printf_hex_int.o(.text) refers to _printf_intcommon.o(.text) for _printf_int_common
    _printf_hex_int.o(.text) refers to _printf_hex_int.o(.constdata) for .constdata
    _printf_hex_int_ll.o(.text) refers to _printf_intcommon.o(.text) for _printf_int_common
    _printf_hex_int_ll.o(.text) refers to _printf_hex_int_ll.o(.constdata) for .constdata
    _printf_hex_ptr.o(.text) refers to _printf_intcommon.o(.text) for _printf_int_common
    _printf_hex_ptr.o(.text) refers to _printf_hex_ptr.o(.constdata) for .constdata
    _printf_hex_int_ptr.o(.text) refers to _printf_intcommon.o(.text) for _printf_int_common
    _printf_hex_int_ptr.o(.text) refers to _printf_hex_int_ptr.o(.constdata) for .constdata
    _printf_hex_ll_ptr.o(.text) refers to _printf_intcommon.o(.text) for _printf_int_common
    _printf_hex_ll_ptr.o(.text) refers to _printf_hex_ll_ptr.o(.constdata) for .constdata
    _printf_hex_int_ll_ptr.o(.text) refers to _printf_intcommon.o(.text) for _printf_int_common
    _printf_hex_int_ll_ptr.o(.text) refers to _printf_hex_int_ll_ptr.o(.constdata) for .constdata
    __printf_flags.o(.text) refers to _printf_percent.o(.ARM.Collect$$_printf_percent$$00000000) for _printf_percent
    __printf_flags.o(.text) refers to __printf_flags.o(.constdata) for .constdata
    __printf_ss.o(.text) refers to _printf_percent.o(.ARM.Collect$$_printf_percent$$00000000) for _printf_percent
    __printf_flags_ss.o(.text) refers to _printf_percent.o(.ARM.Collect$$_printf_percent$$00000000) for _printf_percent
    __printf_flags_ss.o(.text) refers to __printf_flags_ss.o(.constdata) for .constdata
    __printf_wp.o(.text) refers to __printf_wp.o(i._is_digit) for _is_digit
    __printf_wp.o(.text) refers to _printf_percent.o(.ARM.Collect$$_printf_percent$$00000000) for _printf_percent
    __printf_flags_wp.o(.text) refers to __printf_wp.o(i._is_digit) for _is_digit
    __printf_flags_wp.o(.text) refers to _printf_percent.o(.ARM.Collect$$_printf_percent$$00000000) for _printf_percent
    __printf_flags_wp.o(.text) refers to __printf_flags_wp.o(.constdata) for .constdata
    __printf_ss_wp.o(.text) refers to __printf_wp.o(i._is_digit) for _is_digit
    __printf_ss_wp.o(.text) refers to _printf_percent.o(.ARM.Collect$$_printf_percent$$00000000) for _printf_percent
    __printf_flags_ss_wp.o(.text) refers to __printf_wp.o(i._is_digit) for _is_digit
    __printf_flags_ss_wp.o(.text) refers to _printf_percent.o(.ARM.Collect$$_printf_percent$$00000000) for _printf_percent
    __printf_flags_ss_wp.o(.text) refers to __printf_flags_ss_wp.o(.constdata) for .constdata
    _printf_s.o(.ARM.Collect$$_printf_percent$$00000014) refers (Weak) to _printf_char.o(.text) for _printf_string
    _printf_x.o(.ARM.Collect$$_printf_percent$$0000000C) refers (Weak) to _printf_hex_int.o(.text) for _printf_int_hex
    _printf_d.o(.ARM.Collect$$_printf_percent$$00000009) refers (Weak) to _printf_dec.o(.text) for _printf_int_dec
    _printf_u.o(.ARM.Collect$$_printf_percent$$0000000A) refers (Weak) to _printf_dec.o(.text) for _printf_int_dec
    _printf_percent.o(.ARM.Collect$$_printf_percent$$00000000) refers (Special) to _printf_percent_end.o(.ARM.Collect$$_printf_percent$$00000017) for _printf_percent_end
    atoi.o(.text) refers to rt_errno_addr_intlibspace.o(.text) for __aeabi_errno_addr
    atoi.o(.text) refers to strtol.o(.text) for strtol
    strtoul.o(.text) refers to rt_errno_addr_intlibspace.o(.text) for __aeabi_errno_addr
    strtoul.o(.text) refers to rt_ctype_table.o(.text) for __rt_ctype_table
    strtoul.o(.text) refers to _strtoul.o(.text) for _strtoul
    strtok_r.o(.text) refers to strtok_int.o(.text) for __strtok_internal
    strncasecmp.o(.text) refers to tolower.o(.text) for tolower
    strcasecmp.o(.text) refers to tolower.o(.text) for tolower
    rt_memcpy_v6.o(.text) refers to rt_memcpy_w.o(.text) for __aeabi_memcpy4
    rt_memmove_v6.o(.text) refers to rt_memcpy_v6.o(.text) for __aeabi_memcpy
    rt_memmove_v6.o(.text) refers to rt_memmove_w.o(.text) for __memmove_aligned
    aeabi_memset.o(.text) refers to rt_memclr.o(.text) for _memset
    rt_memclr.o(.text) refers to rt_memclr_w.o(.text) for _memset_w
    strncpy.o(.text) refers to rt_memclr.o(.text) for __aeabi_memclr
    __main.o(!!!main) refers to __rtentry.o(.ARM.Collect$$rtentry$$00000000) for __rt_entry
    dflt_clz.o(x$fpl$dfltu) refers (Special) to usenofp.o(x$fpl$usenofp) for __I$use$fp
    dflt_clz.o(x$fpl$dflt) refers (Special) to usenofp.o(x$fpl$usenofp) for __I$use$fp
    dflt_clz.o(x$fpl$dfltn) refers (Special) to usenofp.o(x$fpl$usenofp) for __I$use$fp
    dleqf.o(x$fpl$dleqf) refers (Special) to usenofp.o(x$fpl$usenofp) for __I$use$fp
    dleqf.o(x$fpl$dleqf) refers to dnaninf.o(x$fpl$dnaninf) for __fpl_dnaninf
    dleqf.o(x$fpl$dleqf) refers to dcmpi.o(x$fpl$dcmpinf) for __fpl_dcmp_Inf
    drleqf.o(x$fpl$drleqf) refers (Special) to usenofp.o(x$fpl$usenofp) for __I$use$fp
    drleqf.o(x$fpl$drleqf) refers to dleqf.o(x$fpl$dleqf) for __fpl_dcmple_InfNaN
    __rtentry.o(.ARM.Collect$$rtentry$$00000000) refers (Special) to __rtentry2.o(.ARM.Collect$$rtentry$$0000000A) for __rt_entry_li
    __rtentry.o(.ARM.Collect$$rtentry$$00000000) refers (Special) to __rtentry2.o(.ARM.Collect$$rtentry$$0000000D) for __rt_entry_main
    __rtentry.o(.ARM.Collect$$rtentry$$00000000) refers (Special) to __rtentry2.o(.ARM.Collect$$rtentry$$0000000C) for __rt_entry_postli_1
    __rtentry.o(.ARM.Collect$$rtentry$$00000000) refers (Special) to __rtentry2.o(.ARM.Collect$$rtentry$$00000009) for __rt_entry_postsh_1
    __rtentry.o(.ARM.Collect$$rtentry$$00000000) refers (Special) to __rtentry2.o(.ARM.Collect$$rtentry$$00000002) for __rt_entry_presh_1
    __rtentry.o(.ARM.Collect$$rtentry$$00000000) refers (Special) to __rtentry7.o(.ARM.Collect$$rtentry$$00000007) for __rt_entry_sh
    rt_heap_descriptor.o(.text) refers to rt_heap_descriptor.o(.bss) for __rt_heap_descriptor_data
    rt_heap_descriptor_intlibspace.o(.text) refers to libspace.o(.bss) for __libspace_start
    rt_locale.o(.text) refers to rt_locale.o(.bss) for __rt_locale_data
    rt_locale_intlibspace.o(.text) refers to libspace.o(.bss) for __libspace_start
    rt_errno_addr.o(.text) refers to rt_errno_addr.o(.bss) for __aeabi_errno_addr_data
    rt_errno_addr_intlibspace.o(.text) refers to libspace.o(.bss) for __libspace_start
    init_alloc.o(.text) refers (Special) to hguard.o(.text) for __heap$guard
    init_alloc.o(.text) refers (Special) to libinit5.o(.ARM.Collect$$libinit$$00000008) for __rt_lib_init_heap_2
    init_alloc.o(.text) refers (Special) to maybetermalloc1.o(.emb_text) for _maybe_terminate_alloc
    init_alloc.o(.text) refers to h1_extend.o(.text) for __Heap_ProvideMemory
    init_alloc.o(.text) refers to defsig_rtmem_outer.o(.text) for __rt_SIGRTMEM
    init_alloc.o(.text) refers to rt_heap_descriptor_intlibspace.o(.text) for __rt_heap_descriptor
    init_alloc.o(.text) refers to h1_init.o(.text) for __Heap_Initialize
    h1_init_mt.o(.text) refers to mutex_dummy.o(.text) for _mutex_initialize
    _printf_intcommon.o(.text) refers (Weak) to _printf_pad.o(.text) for _printf_pre_padding
    _printf_intcommon.o(.text) refers (Weak) to _printf_pad.o(.text) for _printf_pre_padding
    _printf_intcommon.o(.text) refers (Weak) to _printf_pad.o(.text) for _printf_post_padding
    _printf_char_common.o(.text) refers to __printf_flags_wp.o(.text) for __printf
    _printf_char.o(.text) refers (Weak) to _printf_str.o(.text) for _printf_str
    _printf_char_file.o(.text) refers to _printf_char_common.o(.text) for _printf_char_common
    _printf_char_file.o(.text) refers to retarget.o(.text) for ferror
    _printf_char_file.o(.text) refers to debug.o(.text) for fputc
    _strtoul.o(.text) refers to _chval.o(.text) for _chval
    _strtoul.o(.text) refers to rt_errno_addr_intlibspace.o(.text) for __aeabi_errno_addr
    strtol.o(.text) refers to rt_ctype_table.o(.text) for __rt_ctype_table
    strtol.o(.text) refers to _strtoul.o(.text) for _strtoul
    strtol.o(.text) refers to rt_errno_addr_intlibspace.o(.text) for __aeabi_errno_addr
    lc_ctype_c.o(locale$$data) refers (Special) to libinit2.o(.ARM.Collect$$libinit$$00000012) for __rt_lib_init_lc_ctype_2
    lc_ctype_c.o(locale$$code) refers (Special) to libinit2.o(.ARM.Collect$$libinit$$00000012) for __rt_lib_init_lc_ctype_2
    lc_ctype_c.o(locale$$code) refers to strcmpv7m.o(.text) for strcmp
    lc_ctype_c.o(locale$$code) refers to lc_ctype_c.o(locale$$data) for __lcctype_c_name
    strtok_int.o(.text) refers to strspn.o(.text) for strspn
    strtok_int.o(.text) refers to strcspn.o(.text) for strcspn
    rt_memmove_w.o(.text) refers to rt_memcpy_w.o(.text) for __aeabi_memcpy4
    _get_argv.o(.text) refers (Special) to hrguard.o(.text) for __heap_region$guard
    _get_argv.o(.text) refers to h1_alloc.o(.text) for malloc
    _get_argv.o(.text) refers to defsig_rtmem_outer.o(.text) for __rt_SIGRTMEM
    _get_argv.o(.text) refers to sys_command.o(.text) for _sys_command_string
    libinit2.o(.ARM.Collect$$libinit$$00000005) refers (Weak) to init_alloc.o(.text) for _init_alloc
    libinit2.o(.ARM.Collect$$libinit$$0000000F) refers (Weak) to rt_locale_intlibspace.o(.text) for __rt_locale
    libinit2.o(.ARM.Collect$$libinit$$00000010) refers to libinit2.o(.ARM.Collect$$libinit$$0000000F) for .ARM.Collect$$libinit$$0000000F
    libinit2.o(.ARM.Collect$$libinit$$00000012) refers to libinit2.o(.ARM.Collect$$libinit$$0000000F) for .ARM.Collect$$libinit$$0000000F
    libinit2.o(.ARM.Collect$$libinit$$00000012) refers (Weak) to lc_ctype_c.o(locale$$code) for _get_lc_ctype
    libinit2.o(.ARM.Collect$$libinit$$00000014) refers to libinit2.o(.ARM.Collect$$libinit$$0000000F) for .ARM.Collect$$libinit$$0000000F
    libinit2.o(.ARM.Collect$$libinit$$00000016) refers to libinit2.o(.ARM.Collect$$libinit$$0000000F) for .ARM.Collect$$libinit$$0000000F
    libinit2.o(.ARM.Collect$$libinit$$00000018) refers to libinit2.o(.ARM.Collect$$libinit$$0000000F) for .ARM.Collect$$libinit$$0000000F
    libinit2.o(.ARM.Collect$$libinit$$00000026) refers to argv_veneer.o(.emb_text) for __ARM_argv_veneer
    libinit2.o(.ARM.Collect$$libinit$$00000027) refers to argv_veneer.o(.emb_text) for __ARM_argv_veneer
    dcmpi.o(x$fpl$dcmpinf) refers (Special) to usenofp.o(x$fpl$usenofp) for __I$use$fp
    dnaninf.o(x$fpl$dnaninf) refers (Special) to usenofp.o(x$fpl$usenofp) for __I$use$fp
    sys_command.o(.text) refers (Special) to use_no_semi.o(.text) for __I$use$semihosting
    sys_command.o(.text) refers (Special) to indicate_semi.o(.text) for __semihosting_library_function
    libspace.o(.text) refers to libspace.o(.bss) for __libspace_start
    __rtentry2.o(.ARM.Collect$$rtentry$$00000008) refers to boardinit2.o(.text) for _platform_post_stackheap_init
    __rtentry2.o(.ARM.Collect$$rtentry$$0000000A) refers to libinit.o(.ARM.Collect$$libinit$$00000000) for __rt_lib_init
    __rtentry2.o(.ARM.Collect$$rtentry$$0000000B) refers to boardinit3.o(.text) for _platform_post_lib_init
    __rtentry2.o(.ARM.Collect$$rtentry$$0000000D) refers to main.o(.text) for main
    __rtentry2.o(.ARM.Collect$$rtentry$$0000000D) refers to exit.o(.text) for exit
    __rtentry2.o(.ARM.exidx) refers to __rtentry2.o(.ARM.Collect$$rtentry$$00000001) for .ARM.Collect$$rtentry$$00000001
    __rtentry2.o(.ARM.exidx) refers to __rtentry2.o(.ARM.Collect$$rtentry$$00000008) for .ARM.Collect$$rtentry$$00000008
    __rtentry2.o(.ARM.exidx) refers to __rtentry2.o(.ARM.Collect$$rtentry$$0000000A) for .ARM.Collect$$rtentry$$0000000A
    __rtentry2.o(.ARM.exidx) refers to __rtentry2.o(.ARM.Collect$$rtentry$$0000000B) for .ARM.Collect$$rtentry$$0000000B
    __rtentry2.o(.ARM.exidx) refers to __rtentry2.o(.ARM.Collect$$rtentry$$0000000D) for .ARM.Collect$$rtentry$$0000000D
    __rtentry4.o(.ARM.Collect$$rtentry$$00000004) refers to sys_stackheap_outer.o(.text) for __user_setup_stackheap
    __rtentry4.o(.ARM.exidx) refers to __rtentry4.o(.ARM.Collect$$rtentry$$00000004) for .ARM.Collect$$rtentry$$00000004
    __rtentry7.o(.ARM.Collect$$rtentry$$00000007) refers to __rtentry7.o(.ARM.Collect$$rtentry$$00002718) for __lit__00000000
    __rtentry7.o(__vectab_stack_and_reset_2_area) refers to __main.o(!!!main) for __main
    __rtentry7.o(.ARM.exidx) refers to __rtentry7.o(.ARM.Collect$$rtentry$$00000007) for .ARM.Collect$$rtentry$$00000007
    __rtentry7.o(.ARM.exidx) refers to __rtentry7.o(.ARM.Collect$$rtentry$$00002718) for .ARM.Collect$$rtentry$$00002718
    maybetermalloc2.o(.emb_text) refers (Special) to term_alloc.o(.text) for _terminate_alloc
    h1_extend.o(.text) refers to h1_free.o(.text) for free
    h1_extend_mt.o(.text) refers to h1_free_mt.o(.text) for _free_internal
    defsig_rtmem_outer.o(.text) refers to defsig_rtmem_inner.o(.text) for __rt_SIGRTMEM_inner
    defsig_rtmem_outer.o(.text) refers to defsig_exit.o(.text) for __sig_exit
    defsig_rtmem_formal.o(.text) refers to rt_raise.o(.text) for __rt_raise
    heapauxa.o(.text) refers to heapauxa.o(.data) for .data
    argv_veneer.o(.emb_text) refers to no_argv.o(.text) for __ARM_get_argv
    sys_stackheap_outer.o(.text) refers to libspace.o(.text) for __user_perproc_libspace
    sys_stackheap_outer.o(.text) refers to sys_stackheap.o(.text) for __user_initial_stackheap
    rt_raise.o(.text) refers to __raise.o(.text) for __raise
    rt_raise.o(.text) refers to retarget.o(.text) for _sys_exit
    term_alloc.o(.text) refers (Special) to libshutdown2.o(.ARM.Collect$$libshutdown$$0000000E) for __rt_lib_shutdown_heap_2
    term_alloc.o(.text) refers to rt_heap_descriptor_intlibspace.o(.text) for __rt_heap_descriptor
    term_alloc.o(.text) refers to h1_final.o(.text) for __Heap_Finalize
    exit.o(.text) refers to rtexit.o(.ARM.Collect$$rtexit$$00000000) for __rt_exit
    defsig_exit.o(.text) refers to retarget.o(.text) for _sys_exit
    defsig_rtmem_inner.o(.text) refers to defsig_general.o(.text) for __default_signal_display
    _get_argv_nomalloc.o(.text) refers (Special) to hrguard.o(.text) for __heap_region$guard
    _get_argv_nomalloc.o(.text) refers to defsig_rtmem_outer.o(.text) for __rt_SIGRTMEM
    _get_argv_nomalloc.o(.text) refers to sys_command.o(.text) for _sys_command_string
    libinit.o(.ARM.Collect$$libinit$$00000000) refers (Special) to libinit2.o(.ARM.Collect$$libinit$$0000002E) for __rt_lib_init_alloca_1
    libinit.o(.ARM.Collect$$libinit$$00000000) refers (Special) to libinit2.o(.ARM.Collect$$libinit$$0000002C) for __rt_lib_init_argv_1
    libinit.o(.ARM.Collect$$libinit$$00000000) refers (Special) to libinit2.o(.ARM.Collect$$libinit$$0000001B) for __rt_lib_init_atexit_1
    libinit.o(.ARM.Collect$$libinit$$00000000) refers (Special) to libinit2.o(.ARM.Collect$$libinit$$00000021) for __rt_lib_init_clock_1
    libinit.o(.ARM.Collect$$libinit$$00000000) refers (Special) to libinit2.o(.ARM.Collect$$libinit$$00000032) for __rt_lib_init_cpp_1
    libinit.o(.ARM.Collect$$libinit$$00000000) refers (Special) to libinit2.o(.ARM.Collect$$libinit$$00000030) for __rt_lib_init_exceptions_1
    libinit.o(.ARM.Collect$$libinit$$00000000) refers (Special) to libinit2.o(.ARM.Collect$$libinit$$00000002) for __rt_lib_init_fp_1
    libinit.o(.ARM.Collect$$libinit$$00000000) refers (Special) to libinit2.o(.ARM.Collect$$libinit$$0000001F) for __rt_lib_init_fp_trap_1
    libinit.o(.ARM.Collect$$libinit$$00000000) refers (Special) to libinit2.o(.ARM.Collect$$libinit$$00000023) for __rt_lib_init_getenv_1
    libinit.o(.ARM.Collect$$libinit$$00000000) refers (Special) to libinit2.o(.ARM.Collect$$libinit$$0000000A) for __rt_lib_init_heap_1
    libinit.o(.ARM.Collect$$libinit$$00000000) refers (Special) to libinit2.o(.ARM.Collect$$libinit$$00000011) for __rt_lib_init_lc_collate_1
    libinit.o(.ARM.Collect$$libinit$$00000000) refers (Special) to libinit2.o(.ARM.Collect$$libinit$$00000013) for __rt_lib_init_lc_ctype_1
    libinit.o(.ARM.Collect$$libinit$$00000000) refers (Special) to libinit2.o(.ARM.Collect$$libinit$$00000015) for __rt_lib_init_lc_monetary_1
    libinit.o(.ARM.Collect$$libinit$$00000000) refers (Special) to libinit2.o(.ARM.Collect$$libinit$$00000017) for __rt_lib_init_lc_numeric_1
    libinit.o(.ARM.Collect$$libinit$$00000000) refers (Special) to libinit2.o(.ARM.Collect$$libinit$$00000019) for __rt_lib_init_lc_time_1
    libinit.o(.ARM.Collect$$libinit$$00000000) refers (Special) to libinit2.o(.ARM.Collect$$libinit$$00000004) for __rt_lib_init_preinit_1
    libinit.o(.ARM.Collect$$libinit$$00000000) refers (Special) to libinit2.o(.ARM.Collect$$libinit$$0000000E) for __rt_lib_init_rand_1
    libinit.o(.ARM.Collect$$libinit$$00000000) refers (Special) to libinit2.o(.ARM.Collect$$libinit$$00000033) for __rt_lib_init_return
    libinit.o(.ARM.Collect$$libinit$$00000000) refers (Special) to libinit2.o(.ARM.Collect$$libinit$$0000001D) for __rt_lib_init_signal_1
    libinit.o(.ARM.Collect$$libinit$$00000000) refers (Special) to libinit2.o(.ARM.Collect$$libinit$$00000025) for __rt_lib_init_stdio_1
    libinit.o(.ARM.Collect$$libinit$$00000000) refers (Special) to libinit2.o(.ARM.Collect$$libinit$$0000000C) for __rt_lib_init_user_alloc_1
    sys_stackheap.o(.text) refers (Special) to indicate_semi.o(.text) for __semihosting_library_function
    sys_stackheap.o(.text) refers to use_no_semi.o(.text) for __I$use$semihosting
    rtexit.o(.ARM.Collect$$rtexit$$00000000) refers (Special) to rtexit2.o(.ARM.Collect$$rtexit$$00000004) for __rt_exit_exit
    rtexit.o(.ARM.Collect$$rtexit$$00000000) refers (Special) to rtexit2.o(.ARM.Collect$$rtexit$$00000003) for __rt_exit_ls
    rtexit.o(.ARM.Collect$$rtexit$$00000000) refers (Special) to rtexit2.o(.ARM.Collect$$rtexit$$00000002) for __rt_exit_prels_1
    rtexit.o(.ARM.exidx) refers (Special) to rtexit2.o(.ARM.Collect$$rtexit$$00000004) for __rt_exit_exit
    rtexit.o(.ARM.exidx) refers (Special) to rtexit2.o(.ARM.Collect$$rtexit$$00000003) for __rt_exit_ls
    rtexit.o(.ARM.exidx) refers (Special) to rtexit2.o(.ARM.Collect$$rtexit$$00000002) for __rt_exit_prels_1
    rtexit.o(.ARM.exidx) refers to rtexit.o(.ARM.Collect$$rtexit$$00000000) for .ARM.Collect$$rtexit$$00000000
    __raise.o(.text) refers to defsig.o(CL$$defsig) for __default_signal_handler
    defsig_general.o(.text) refers to retarget.o(.text) for _ttywrch
    libinit5.o(.ARM.Collect$$libinit$$00000008) refers to libinit5.o(.ARM.Collect$$libinit$$00002719) for __lit__00000000
    libinit5.o(.ARM.Collect$$libinit$$00000008) refers (Weak) to init_alloc.o(.text) for _init_alloc
    libinit5.o(.ARM.Collect$$libinit$$0000002A) refers to libinit5.o(.ARM.Collect$$libinit$$0000273B) for __lit__00000002
    libinit5.o(.ARM.Collect$$libinit$$0000002A) refers to argv_veneer.o(.emb_text) for __ARM_argv_veneer
    libshutdown2.o(.ARM.Collect$$libshutdown$$0000000D) refers (Weak) to term_alloc.o(.text) for _terminate_alloc
    rtexit2.o(.ARM.Collect$$rtexit$$00000003) refers to libshutdown.o(.ARM.Collect$$libshutdown$$00000000) for __rt_lib_shutdown
    rtexit2.o(.ARM.Collect$$rtexit$$00000004) refers to retarget.o(.text) for _sys_exit
    rtexit2.o(.ARM.exidx) refers to rtexit2.o(.ARM.Collect$$rtexit$$00000001) for .ARM.Collect$$rtexit$$00000001
    rtexit2.o(.ARM.exidx) refers to rtexit2.o(.ARM.Collect$$rtexit$$00000003) for .ARM.Collect$$rtexit$$00000003
    rtexit2.o(.ARM.exidx) refers to rtexit2.o(.ARM.Collect$$rtexit$$00000004) for .ARM.Collect$$rtexit$$00000004
    defsig.o(CL$$defsig) refers to defsig_rtmem_inner.o(.text) for __rt_SIGRTMEM_inner
    defsig_abrt_inner.o(.text) refers to defsig_general.o(.text) for __default_signal_display
    defsig_fpe_inner.o(.text) refers to defsig_general.o(.text) for __default_signal_display
    defsig_rtred_inner.o(.text) refers to defsig_general.o(.text) for __default_signal_display
    defsig_stak_inner.o(.text) refers to defsig_general.o(.text) for __default_signal_display
    defsig_pvfn_inner.o(.text) refers to defsig_general.o(.text) for __default_signal_display
    defsig_cppl_inner.o(.text) refers to defsig_general.o(.text) for __default_signal_display
    defsig_segv_inner.o(.text) refers to defsig_general.o(.text) for __default_signal_display
    defsig_other.o(.text) refers to defsig_general.o(.text) for __default_signal_display
    libshutdown.o(.ARM.Collect$$libshutdown$$00000000) refers (Special) to libshutdown2.o(.ARM.Collect$$libshutdown$$00000002) for __rt_lib_shutdown_cpp_1
    libshutdown.o(.ARM.Collect$$libshutdown$$00000000) refers (Special) to libshutdown2.o(.ARM.Collect$$libshutdown$$00000007) for __rt_lib_shutdown_fp_trap_1
    libshutdown.o(.ARM.Collect$$libshutdown$$00000000) refers (Special) to libshutdown2.o(.ARM.Collect$$libshutdown$$0000000F) for __rt_lib_shutdown_heap_1
    libshutdown.o(.ARM.Collect$$libshutdown$$00000000) refers (Special) to libshutdown2.o(.ARM.Collect$$libshutdown$$00000010) for __rt_lib_shutdown_return
    libshutdown.o(.ARM.Collect$$libshutdown$$00000000) refers (Special) to libshutdown2.o(.ARM.Collect$$libshutdown$$0000000A) for __rt_lib_shutdown_signal_1
    libshutdown.o(.ARM.Collect$$libshutdown$$00000000) refers (Special) to libshutdown2.o(.ARM.Collect$$libshutdown$$00000004) for __rt_lib_shutdown_stdio_1
    libshutdown.o(.ARM.Collect$$libshutdown$$00000000) refers (Special) to libshutdown2.o(.ARM.Collect$$libshutdown$$0000000C) for __rt_lib_shutdown_user_alloc_1


==============================================================================

Removing Unused input sections from the image.

    Removing system_stm32f2xx.o(.rev16_text), (4 bytes).
    Removing system_stm32f2xx.o(.revsh_text), (4 bytes).
    Removing system_stm32f2xx.o(.rrx_text), (6 bytes).
    Removing stm32f2xx_it.o(.rev16_text), (4 bytes).
    Removing stm32f2xx_it.o(.revsh_text), (4 bytes).
    Removing stm32f2xx_it.o(.rrx_text), (6 bytes).
    Removing main.o(.rev16_text), (4 bytes).
    Removing main.o(.revsh_text), (4 bytes).
    Removing main.o(.rrx_text), (6 bytes).
    Removing debug.o(.rev16_text), (4 bytes).
    Removing debug.o(.revsh_text), (4 bytes).
    Removing debug.o(.rrx_text), (6 bytes).
    Removing lis302dl.o(.rev16_text), (4 bytes).
    Removing lis302dl.o(.revsh_text), (4 bytes).
    Removing lis302dl.o(.rrx_text), (6 bytes).
    Removing ext_int_driver.o(.rev16_text), (4 bytes).
    Removing ext_int_driver.o(.revsh_text), (4 bytes).
    Removing ext_int_driver.o(.rrx_text), (6 bytes).
    Removing stm32f2x7_eth.o(.rev16_text), (4 bytes).
    Removing stm32f2x7_eth.o(.revsh_text), (4 bytes).
    Removing stm32f2x7_eth.o(.rrx_text), (6 bytes).
    Removing bsd_socket.o(.text), (3638 bytes).
    Removing bsd_socket.o(.constdata), (32 bytes).
    Removing hmac.o(.constdata), (100 bytes).
    Removing idea.o(.text), (912 bytes).
    Removing idea.o(.constdata), (36 bytes).
    Removing idea.o(.conststring), (5 bytes).
    Removing seed.o(.text), (1348 bytes).
    Removing seed.o(.constdata), (4196 bytes).
    Removing seed.o(.conststring), (5 bytes).
    Removing aria.o(.text), (5576 bytes).
    Removing aria.o(.constdata), (1108 bytes).
    Removing aria.o(.conststring), (5 bytes).
    Removing chacha.o(.text), (1816 bytes).
    Removing poly1305.o(.text), (2064 bytes).
    Removing chacha20_poly1305.o(.text), (712 bytes).
    Removing stm322xg_eval.o(.rev16_text), (4 bytes).
    Removing stm322xg_eval.o(.revsh_text), (4 bytes).
    Removing stm322xg_eval.o(.rrx_text), (6 bytes).
    Removing stm322xg_eval_fsmc_sram.o(.rev16_text), (4 bytes).
    Removing stm322xg_eval_fsmc_sram.o(.revsh_text), (4 bytes).
    Removing stm322xg_eval_fsmc_sram.o(.rrx_text), (6 bytes).
    Removing stm322xg_eval_fsmc_sram.o(.text), (700 bytes).
    Removing stm322xg_eval_ioe.o(.rev16_text), (4 bytes).
    Removing stm322xg_eval_ioe.o(.revsh_text), (4 bytes).
    Removing stm322xg_eval_ioe.o(.rrx_text), (6 bytes).
    Removing stm322xg_eval_lcd.o(.rev16_text), (4 bytes).
    Removing stm322xg_eval_lcd.o(.revsh_text), (4 bytes).
    Removing stm322xg_eval_lcd.o(.rrx_text), (6 bytes).
    Removing misc.o(.rev16_text), (4 bytes).
    Removing misc.o(.revsh_text), (4 bytes).
    Removing misc.o(.rrx_text), (6 bytes).
    Removing stm32f2xx_adc.o(.rev16_text), (4 bytes).
    Removing stm32f2xx_adc.o(.revsh_text), (4 bytes).
    Removing stm32f2xx_adc.o(.rrx_text), (6 bytes).
    Removing stm32f2xx_can.o(.rev16_text), (4 bytes).
    Removing stm32f2xx_can.o(.revsh_text), (4 bytes).
    Removing stm32f2xx_can.o(.rrx_text), (6 bytes).
    Removing stm32f2xx_can.o(.text), (2544 bytes).
    Removing stm32f2xx_crc.o(.rev16_text), (4 bytes).
    Removing stm32f2xx_crc.o(.revsh_text), (4 bytes).
    Removing stm32f2xx_crc.o(.rrx_text), (6 bytes).
    Removing stm32f2xx_crc.o(.text), (72 bytes).
    Removing stm32f2xx_cryp.o(.rev16_text), (4 bytes).
    Removing stm32f2xx_cryp.o(.revsh_text), (4 bytes).
    Removing stm32f2xx_cryp.o(.rrx_text), (6 bytes).
    Removing stm32f2xx_cryp.o(.text), (660 bytes).
    Removing stm32f2xx_cryp_aes.o(.rev16_text), (4 bytes).
    Removing stm32f2xx_cryp_aes.o(.revsh_text), (4 bytes).
    Removing stm32f2xx_cryp_aes.o(.rrx_text), (6 bytes).
    Removing stm32f2xx_cryp_aes.o(.text), (1524 bytes).
    Removing stm32f2xx_cryp_des.o(.rev16_text), (4 bytes).
    Removing stm32f2xx_cryp_des.o(.revsh_text), (4 bytes).
    Removing stm32f2xx_cryp_des.o(.rrx_text), (6 bytes).
    Removing stm32f2xx_cryp_des.o(.text), (468 bytes).
    Removing stm32f2xx_cryp_tdes.o(.rev16_text), (4 bytes).
    Removing stm32f2xx_cryp_tdes.o(.revsh_text), (4 bytes).
    Removing stm32f2xx_cryp_tdes.o(.rrx_text), (6 bytes).
    Removing stm32f2xx_cryp_tdes.o(.text), (532 bytes).
    Removing stm32f2xx_dac.o(.rev16_text), (4 bytes).
    Removing stm32f2xx_dac.o(.revsh_text), (4 bytes).
    Removing stm32f2xx_dac.o(.rrx_text), (6 bytes).
    Removing stm32f2xx_dac.o(.text), (528 bytes).
    Removing stm32f2xx_dbgmcu.o(.rev16_text), (4 bytes).
    Removing stm32f2xx_dbgmcu.o(.revsh_text), (4 bytes).
    Removing stm32f2xx_dbgmcu.o(.rrx_text), (6 bytes).
    Removing stm32f2xx_dbgmcu.o(.text), (100 bytes).
    Removing stm32f2xx_dcmi.o(.rev16_text), (4 bytes).
    Removing stm32f2xx_dcmi.o(.revsh_text), (4 bytes).
    Removing stm32f2xx_dcmi.o(.rrx_text), (6 bytes).
    Removing stm32f2xx_dcmi.o(.text), (396 bytes).
    Removing stm32f2xx_dma.o(.rev16_text), (4 bytes).
    Removing stm32f2xx_dma.o(.revsh_text), (4 bytes).
    Removing stm32f2xx_dma.o(.rrx_text), (6 bytes).
    Removing stm32f2xx_exti.o(.rev16_text), (4 bytes).
    Removing stm32f2xx_exti.o(.revsh_text), (4 bytes).
    Removing stm32f2xx_exti.o(.rrx_text), (6 bytes).
    Removing stm32f2xx_flash.o(.rev16_text), (4 bytes).
    Removing stm32f2xx_flash.o(.revsh_text), (4 bytes).
    Removing stm32f2xx_flash.o(.rrx_text), (6 bytes).
    Removing stm32f2xx_flash.o(.text), (1212 bytes).
    Removing stm32f2xx_fsmc.o(.rev16_text), (4 bytes).
    Removing stm32f2xx_fsmc.o(.revsh_text), (4 bytes).
    Removing stm32f2xx_fsmc.o(.rrx_text), (6 bytes).
    Removing stm32f2xx_gpio.o(.rev16_text), (4 bytes).
    Removing stm32f2xx_gpio.o(.revsh_text), (4 bytes).
    Removing stm32f2xx_gpio.o(.rrx_text), (6 bytes).
    Removing stm32f2xx_hash.o(.rev16_text), (4 bytes).
    Removing stm32f2xx_hash.o(.revsh_text), (4 bytes).
    Removing stm32f2xx_hash.o(.rrx_text), (6 bytes).
    Removing stm32f2xx_hash.o(.text), (496 bytes).
    Removing stm32f2xx_hash_md5.o(.rev16_text), (4 bytes).
    Removing stm32f2xx_hash_md5.o(.revsh_text), (4 bytes).
    Removing stm32f2xx_hash_md5.o(.rrx_text), (6 bytes).
    Removing stm32f2xx_hash_md5.o(.text), (534 bytes).
    Removing stm32f2xx_hash_sha1.o(.rev16_text), (4 bytes).
    Removing stm32f2xx_hash_sha1.o(.revsh_text), (4 bytes).
    Removing stm32f2xx_hash_sha1.o(.rrx_text), (6 bytes).
    Removing stm32f2xx_hash_sha1.o(.text), (548 bytes).
    Removing stm32f2xx_i2c.o(.rev16_text), (4 bytes).
    Removing stm32f2xx_i2c.o(.revsh_text), (4 bytes).
    Removing stm32f2xx_i2c.o(.rrx_text), (6 bytes).
    Removing stm32f2xx_iwdg.o(.rev16_text), (4 bytes).
    Removing stm32f2xx_iwdg.o(.revsh_text), (4 bytes).
    Removing stm32f2xx_iwdg.o(.rrx_text), (6 bytes).
    Removing stm32f2xx_iwdg.o(.text), (64 bytes).
    Removing stm32f2xx_pwr.o(.rev16_text), (4 bytes).
    Removing stm32f2xx_pwr.o(.revsh_text), (4 bytes).
    Removing stm32f2xx_pwr.o(.rrx_text), (6 bytes).
    Removing stm32f2xx_pwr.o(.text), (216 bytes).
    Removing stm32f2xx_rcc.o(.rev16_text), (4 bytes).
    Removing stm32f2xx_rcc.o(.revsh_text), (4 bytes).
    Removing stm32f2xx_rcc.o(.rrx_text), (6 bytes).
    Removing stm32f2xx_rng.o(.rev16_text), (4 bytes).
    Removing stm32f2xx_rng.o(.revsh_text), (4 bytes).
    Removing stm32f2xx_rng.o(.rrx_text), (6 bytes).
    Removing stm32f2xx_rtc.o(.rev16_text), (4 bytes).
    Removing stm32f2xx_rtc.o(.revsh_text), (4 bytes).
    Removing stm32f2xx_rtc.o(.rrx_text), (6 bytes).
    Removing stm32f2xx_rtc.o(.text), (2824 bytes).
    Removing stm32f2xx_sdio.o(.rev16_text), (4 bytes).
    Removing stm32f2xx_sdio.o(.revsh_text), (4 bytes).
    Removing stm32f2xx_sdio.o(.rrx_text), (6 bytes).
    Removing stm32f2xx_spi.o(.rev16_text), (4 bytes).
    Removing stm32f2xx_spi.o(.revsh_text), (4 bytes).
    Removing stm32f2xx_spi.o(.rrx_text), (6 bytes).
    Removing stm32f2xx_spi.o(.text), (936 bytes).
    Removing stm32f2xx_syscfg.o(.rev16_text), (4 bytes).
    Removing stm32f2xx_syscfg.o(.revsh_text), (4 bytes).
    Removing stm32f2xx_syscfg.o(.rrx_text), (6 bytes).
    Removing stm32f2xx_tim.o(.rev16_text), (4 bytes).
    Removing stm32f2xx_tim.o(.revsh_text), (4 bytes).
    Removing stm32f2xx_tim.o(.rrx_text), (6 bytes).
    Removing stm32f2xx_tim.o(.text), (3234 bytes).
    Removing stm32f2xx_usart.o(.rev16_text), (4 bytes).
    Removing stm32f2xx_usart.o(.revsh_text), (4 bytes).
    Removing stm32f2xx_usart.o(.rrx_text), (6 bytes).
    Removing stm32f2xx_wwdg.o(.rev16_text), (4 bytes).
    Removing stm32f2xx_wwdg.o(.revsh_text), (4 bytes).
    Removing stm32f2xx_wwdg.o(.rrx_text), (6 bytes).
    Removing stm32f2xx_wwdg.o(.text), (144 bytes).

161 unused section(s) (total 39873 bytes) removed from the image.

==============================================================================

Image Symbol Table

    Local Symbols

    Symbol Name                              Value     Ov Type        Size  Object(Section)

    ../clib/angel/boardlib.s                 0x00000000   Number         0  boardinit3.o ABSOLUTE
    ../clib/angel/boardlib.s                 0x00000000   Number         0  boardinit2.o ABSOLUTE
    ../clib/angel/boardlib.s                 0x00000000   Number         0  boardinit1.o ABSOLUTE
    ../clib/angel/boardlib.s                 0x00000000   Number         0  boardshut.o ABSOLUTE
    ../clib/angel/dczerorl2.s                0x00000000   Number         0  __dczerorl2.o ABSOLUTE
    ../clib/angel/handlers.s                 0x00000000   Number         0  __scatter_zi.o ABSOLUTE
    ../clib/angel/kernel.s                   0x00000000   Number         0  __rtentry.o ABSOLUTE
    ../clib/angel/kernel.s                   0x00000000   Number         0  __rtentry4.o ABSOLUTE
    ../clib/angel/kernel.s                   0x00000000   Number         0  __rtentry7.o ABSOLUTE
    ../clib/angel/kernel.s                   0x00000000   Number         0  rtexit2.o ABSOLUTE
    ../clib/angel/kernel.s                   0x00000000   Number         0  rtexit.o ABSOLUTE
    ../clib/angel/kernel.s                   0x00000000   Number         0  __rtentry2.o ABSOLUTE
    ../clib/angel/rt.s                       0x00000000   Number         0  rt_heap_descriptor_intlibspace.o ABSOLUTE
    ../clib/angel/rt.s                       0x00000000   Number         0  rt_heap_descriptor.o ABSOLUTE
    ../clib/angel/rt.s                       0x00000000   Number         0  rt_errno_addr_intlibspace.o ABSOLUTE
    ../clib/angel/rt.s                       0x00000000   Number         0  rt_ctype_table.o ABSOLUTE
    ../clib/angel/rt.s                       0x00000000   Number         0  rt_errno_addr.o ABSOLUTE
    ../clib/angel/rt.s                       0x00000000   Number         0  rt_locale_intlibspace.o ABSOLUTE
    ../clib/angel/rt.s                       0x00000000   Number         0  rt_raise.o ABSOLUTE
    ../clib/angel/rt.s                       0x00000000   Number         0  rt_locale.o ABSOLUTE
    ../clib/angel/scatter.s                  0x00000000   Number         0  __scatter.o ABSOLUTE
    ../clib/angel/startup.s                  0x00000000   Number         0  __main.o ABSOLUTE
    ../clib/angel/sys.s                      0x00000000   Number         0  mutex_dummy.o ABSOLUTE
    ../clib/angel/sys.s                      0x00000000   Number         0  use_no_semi.o ABSOLUTE
    ../clib/angel/sys.s                      0x00000000   Number         0  libspace.o ABSOLUTE
    ../clib/angel/sys.s                      0x00000000   Number         0  indicate_semi.o ABSOLUTE
    ../clib/angel/sys.s                      0x00000000   Number         0  sys_stackheap_outer.o ABSOLUTE
    ../clib/angel/sys.s                      0x00000000   Number         0  sys_stackheap.o ABSOLUTE
    ../clib/angel/sysapp.c                   0x00000000   Number         0  sys_command.o ABSOLUTE
    ../clib/armsys.c                         0x00000000   Number         0  argv_veneer.o ABSOLUTE
    ../clib/armsys.c                         0x00000000   Number         0  _get_argv.o ABSOLUTE
    ../clib/armsys.c                         0x00000000   Number         0  argv_veneer.o ABSOLUTE
    ../clib/armsys.c                         0x00000000   Number         0  _get_argv_nomalloc.o ABSOLUTE
    ../clib/armsys.c                         0x00000000   Number         0  no_argv.o ABSOLUTE
    ../clib/ctype.c                          0x00000000   Number         0  tolower.o ABSOLUTE
    ../clib/ctype.c                          0x00000000   Number         0  toupper.o ABSOLUTE
    ../clib/heap1.c                          0x00000000   Number         0  h1_init.o ABSOLUTE
    ../clib/heap1.c                          0x00000000   Number         0  h1_final.o ABSOLUTE
    ../clib/heap1.c                          0x00000000   Number         0  h1_alloc.o ABSOLUTE
    ../clib/heap1.c                          0x00000000   Number         0  h1_free.o ABSOLUTE
    ../clib/heap1.c                          0x00000000   Number         0  h1_alloc_mt.o ABSOLUTE
    ../clib/heap1.c                          0x00000000   Number         0  h1_final_mt.o ABSOLUTE
    ../clib/heap1.c                          0x00000000   Number         0  h1_extend.o ABSOLUTE
    ../clib/heap1.c                          0x00000000   Number         0  h1_extend_mt.o ABSOLUTE
    ../clib/heap1.c                          0x00000000   Number         0  h1_free_mt.o ABSOLUTE
    ../clib/heap1.c                          0x00000000   Number         0  h1_init_mt.o ABSOLUTE
    ../clib/heap2.c                          0x00000000   Number         0  heap2.o ABSOLUTE
    ../clib/heap2.c                          0x00000000   Number         0  heap2mt.o ABSOLUTE
    ../clib/heap2.c                          0x00000000   Number         0  fdtree.o ABSOLUTE
    ../clib/heapalloc.c                      0x00000000   Number         0  malloc.o ABSOLUTE
    ../clib/heapalloc.c                      0x00000000   Number         0  free.o ABSOLUTE
    ../clib/heapalloc.c                      0x00000000   Number         0  heapstubs.o ABSOLUTE
    ../clib/heapalloc.c                      0x00000000   Number         0  maybetermalloc2.o ABSOLUTE
    ../clib/heapalloc.c                      0x00000000   Number         0  hguard.o ABSOLUTE
    ../clib/heapalloc.c                      0x00000000   Number         0  hrguard.o ABSOLUTE
    ../clib/heapalloc.c                      0x00000000   Number         0  maybetermalloc1.o ABSOLUTE
    ../clib/heapalloc.c                      0x00000000   Number         0  maybetermalloc1.o ABSOLUTE
    ../clib/heapalloc.c                      0x00000000   Number         0  term_alloc.o ABSOLUTE
    ../clib/heapalloc.c                      0x00000000   Number         0  maybetermalloc2.o ABSOLUTE
    ../clib/heapalloc.c                      0x00000000   Number         0  init_alloc.o ABSOLUTE
    ../clib/heapaux.c                        0x00000000   Number         0  heapauxa.o ABSOLUTE
    ../clib/heapaux.c                        0x00000000   Number         0  heapauxi.o ABSOLUTE
    ../clib/libinit.s                        0x00000000   Number         0  libshutdown.o ABSOLUTE
    ../clib/libinit.s                        0x00000000   Number         0  libshutdown2.o ABSOLUTE
    ../clib/libinit.s                        0x00000000   Number         0  libinit.o ABSOLUTE
    ../clib/libinit.s                        0x00000000   Number         0  libinit5.o ABSOLUTE
    ../clib/libinit.s                        0x00000000   Number         0  libinit2.o ABSOLUTE
    ../clib/locale.s                         0x00000000   Number         0  lc_ctype_c.o ABSOLUTE
    ../clib/memcpset.s                       0x00000000   Number         0  rt_memclr_w.o ABSOLUTE
    ../clib/memcpset.s                       0x00000000   Number         0  strncpy.o ABSOLUTE
    ../clib/memcpset.s                       0x00000000   Number         0  strcmpv7m.o ABSOLUTE
    ../clib/memcpset.s                       0x00000000   Number         0  rt_memmove_v6.o ABSOLUTE
    ../clib/memcpset.s                       0x00000000   Number         0  rt_memmove_w.o ABSOLUTE
    ../clib/memcpset.s                       0x00000000   Number         0  rt_memcpy_v6.o ABSOLUTE
    ../clib/memcpset.s                       0x00000000   Number         0  rt_memcpy_w.o ABSOLUTE
    ../clib/memcpset.s                       0x00000000   Number         0  aeabi_memset.o ABSOLUTE
    ../clib/memcpset.s                       0x00000000   Number         0  rt_memclr.o ABSOLUTE
    ../clib/misc.s                           0x00000000   Number         0  printf_stubs.o ABSOLUTE
    ../clib/printf.c                         0x00000000   Number         0  _printf_hex_ll.o ABSOLUTE
    ../clib/printf.c                         0x00000000   Number         0  __printf_ss_wp.o ABSOLUTE
    ../clib/printf.c                         0x00000000   Number         0  _sputc.o ABSOLUTE
    ../clib/printf.c                         0x00000000   Number         0  __printf_flags_ss_wp.o ABSOLUTE
    ../clib/printf.c                         0x00000000   Number         0  _printf_hex_int_ll_ptr.o ABSOLUTE
    ../clib/printf.c                         0x00000000   Number         0  __2printf.o ABSOLUTE
    ../clib/printf.c                         0x00000000   Number         0  __2fprintf.o ABSOLUTE
    ../clib/printf.c                         0x00000000   Number         0  __2sprintf.o ABSOLUTE
    ../clib/printf.c                         0x00000000   Number         0  __printf_flags.o ABSOLUTE
    ../clib/printf.c                         0x00000000   Number         0  noretval__2printf.o ABSOLUTE
    ../clib/printf.c                         0x00000000   Number         0  noretval__2fprintf.o ABSOLUTE
    ../clib/printf.c                         0x00000000   Number         0  noretval__2sprintf.o ABSOLUTE
    ../clib/printf.c                         0x00000000   Number         0  __printf.o ABSOLUTE
    ../clib/printf.c                         0x00000000   Number         0  _printf_str.o ABSOLUTE
    ../clib/printf.c                         0x00000000   Number         0  _printf_dec.o ABSOLUTE
    ../clib/printf.c                         0x00000000   Number         0  _printf_char_file.o ABSOLUTE
    ../clib/printf.c                         0x00000000   Number         0  _printf_hex_int.o ABSOLUTE
    ../clib/printf.c                         0x00000000   Number         0  _printf_hex_int_ll.o ABSOLUTE
    ../clib/printf.c                         0x00000000   Number         0  _printf_hex_ptr.o ABSOLUTE
    ../clib/printf.c                         0x00000000   Number         0  _printf_pad.o ABSOLUTE
    ../clib/printf.c                         0x00000000   Number         0  __printf_ss.o ABSOLUTE
    ../clib/printf.c                         0x00000000   Number         0  _printf_hex_ll_ptr.o ABSOLUTE
    ../clib/printf.c                         0x00000000   Number         0  _printf_intcommon.o ABSOLUTE
    ../clib/printf.c                         0x00000000   Number         0  _printf_char.o ABSOLUTE
    ../clib/printf.c                         0x00000000   Number         0  __printf_flags_ss.o ABSOLUTE
    ../clib/printf.c                         0x00000000   Number         0  _printf_char_common.o ABSOLUTE
    ../clib/printf.c                         0x00000000   Number         0  __printf_wp.o ABSOLUTE
    ../clib/printf.c                         0x00000000   Number         0  _printf_hex_int_ptr.o ABSOLUTE
    ../clib/printf.c                         0x00000000   Number         0  __printf_flags_wp.o ABSOLUTE
    ../clib/printf.c                         0x00000000   Number         0  __printf_nopercent.o ABSOLUTE
    ../clib/printf_percent.s                 0x00000000   Number         0  _printf_u.o ABSOLUTE
    ../clib/printf_percent.s                 0x00000000   Number         0  _printf_s.o ABSOLUTE
    ../clib/printf_percent.s                 0x00000000   Number         0  _printf_x.o ABSOLUTE
    ../clib/printf_percent.s                 0x00000000   Number         0  _printf_d.o ABSOLUTE
    ../clib/printf_percent.s                 0x00000000   Number         0  _printf_percent_end.o ABSOLUTE
    ../clib/printf_percent.s                 0x00000000   Number         0  _printf_percent.o ABSOLUTE
    ../clib/scanf.c                          0x00000000   Number         0  _strtoul.o ABSOLUTE
    ../clib/scanf.c                          0x00000000   Number         0  strtol.o ABSOLUTE
    ../clib/scanf.c                          0x00000000   Number         0  _chval.o ABSOLUTE
    ../clib/scanf.c                          0x00000000   Number         0  strtoul.o ABSOLUTE
    ../clib/scanf.c                          0x00000000   Number         0  atoi.o ABSOLUTE
    ../clib/signal.c                         0x00000000   Number         0  defsig_rtmem_inner.o ABSOLUTE
    ../clib/signal.c                         0x00000000   Number         0  defsig_exit.o ABSOLUTE
    ../clib/signal.c                         0x00000000   Number         0  defsig_abrt_inner.o ABSOLUTE
    ../clib/signal.c                         0x00000000   Number         0  defsig_pvfn_inner.o ABSOLUTE
    ../clib/signal.c                         0x00000000   Number         0  defsig_other.o ABSOLUTE
    ../clib/signal.c                         0x00000000   Number         0  defsig_stak_inner.o ABSOLUTE
    ../clib/signal.c                         0x00000000   Number         0  defsig_rtmem_formal.o ABSOLUTE
    ../clib/signal.c                         0x00000000   Number         0  defsig_general.o ABSOLUTE
    ../clib/signal.c                         0x00000000   Number         0  defsig_segv_inner.o ABSOLUTE
    ../clib/signal.c                         0x00000000   Number         0  __raise.o ABSOLUTE
    ../clib/signal.c                         0x00000000   Number         0  defsig_fpe_inner.o ABSOLUTE
    ../clib/signal.c                         0x00000000   Number         0  defsig_cppl_inner.o ABSOLUTE
    ../clib/signal.c                         0x00000000   Number         0  defsig_rtred_inner.o ABSOLUTE
    ../clib/signal.c                         0x00000000   Number         0  defsig_rtmem_outer.o ABSOLUTE
    ../clib/signal.s                         0x00000000   Number         0  defsig.o ABSOLUTE
    ../clib/stdlib.c                         0x00000000   Number         0  exit.o ABSOLUTE
    ../clib/string.c                         0x00000000   Number         0  strtok_int.o ABSOLUTE
    ../clib/string.c                         0x00000000   Number         0  strtok_r.o ABSOLUTE
    ../clib/string.c                         0x00000000   Number         0  strchr.o ABSOLUTE
    ../clib/string.c                         0x00000000   Number         0  memcmp.o ABSOLUTE
    ../clib/string.c                         0x00000000   Number         0  strcpy.o ABSOLUTE
    ../clib/string.c                         0x00000000   Number         0  strncasecmp.o ABSOLUTE
    ../clib/string.c                         0x00000000   Number         0  strcasecmp.o ABSOLUTE
    ../clib/string.c                         0x00000000   Number         0  strrchr.o ABSOLUTE
    ../clib/string.c                         0x00000000   Number         0  strcspn.o ABSOLUTE
    ../clib/string.c                         0x00000000   Number         0  strlen.o ABSOLUTE
    ../clib/string.c                         0x00000000   Number         0  strcat.o ABSOLUTE
    ../clib/string.c                         0x00000000   Number         0  strspn.o ABSOLUTE
    ../clib/string.c                         0x00000000   Number         0  strncmp.o ABSOLUTE
    ../fplib/dcmpi.s                         0x00000000   Number         0  dcmpi.o ABSOLUTE
    ../fplib/dflt.s                          0x00000000   Number         0  dflt_clz.o ABSOLUTE
    ../fplib/dleqf.s                         0x00000000   Number         0  dleqf.o ABSOLUTE
    ../fplib/dnaninf.s                       0x00000000   Number         0  dnaninf.o ABSOLUTE
    ../fplib/drleqf.s                        0x00000000   Number         0  drleqf.o ABSOLUTE
    ../fplib/fpinit.s                        0x00000000   Number         0  fpinit.o ABSOLUTE
    ../fplib/usenofp.s                       0x00000000   Number         0  usenofp.o ABSOLUTE
    ..\..\..\..\..\common\date_time.c        0x00000000   Number         0  date_time.o ABSOLUTE
    ..\..\..\..\..\common\endian.c           0x00000000   Number         0  endian.o ABSOLUTE
    ..\..\..\..\..\common\os_port_freertos.c 0x00000000   Number         0  os_port_freertos.o ABSOLUTE
    ..\..\..\..\..\common\path.c             0x00000000   Number         0  path.o ABSOLUTE
    ..\..\..\..\..\common\resource_manager.c 0x00000000   Number         0  resource_manager.o ABSOLUTE
    ..\..\..\..\..\common\str.c              0x00000000   Number         0  str.o ABSOLUTE
    ..\..\..\..\..\cyclone_crypto\aes.c      0x00000000   Number         0  aes.o ABSOLUTE
    ..\..\..\..\..\cyclone_crypto\aria.c     0x00000000   Number         0  aria.o ABSOLUTE
    ..\..\..\..\..\cyclone_crypto\asn1.c     0x00000000   Number         0  asn1.o ABSOLUTE
    ..\..\..\..\..\cyclone_crypto\base64.c   0x00000000   Number         0  base64.o ABSOLUTE
    ..\..\..\..\..\cyclone_crypto\camellia.c 0x00000000   Number         0  camellia.o ABSOLUTE
    ..\..\..\..\..\cyclone_crypto\chacha.c   0x00000000   Number         0  chacha.o ABSOLUTE
    ..\..\..\..\..\cyclone_crypto\chacha20_poly1305.c 0x00000000   Number         0  chacha20_poly1305.o ABSOLUTE
    ..\..\..\..\..\cyclone_crypto\cipher_mode_cbc.c 0x00000000   Number         0  cipher_mode_cbc.o ABSOLUTE
    ..\..\..\..\..\cyclone_crypto\cipher_mode_ccm.c 0x00000000   Number         0  cipher_mode_ccm.o ABSOLUTE
    ..\..\..\..\..\cyclone_crypto\cipher_mode_gcm.c 0x00000000   Number         0  cipher_mode_gcm.o ABSOLUTE
    ..\..\..\..\..\cyclone_crypto\des.c      0x00000000   Number         0  des.o ABSOLUTE
    ..\..\..\..\..\cyclone_crypto\des3.c     0x00000000   Number         0  des3.o ABSOLUTE
    ..\..\..\..\..\cyclone_crypto\dh.c       0x00000000   Number         0  dh.o ABSOLUTE
    ..\..\..\..\..\cyclone_crypto\dsa.c      0x00000000   Number         0  dsa.o ABSOLUTE
    ..\..\..\..\..\cyclone_crypto\ec.c       0x00000000   Number         0  ec.o ABSOLUTE
    ..\..\..\..\..\cyclone_crypto\ec_curves.c 0x00000000   Number         0  ec_curves.o ABSOLUTE
    ..\..\..\..\..\cyclone_crypto\ecdh.c     0x00000000   Number         0  ecdh.o ABSOLUTE
    ..\..\..\..\..\cyclone_crypto\ecdsa.c    0x00000000   Number         0  ecdsa.o ABSOLUTE
    ..\..\..\..\..\cyclone_crypto\hmac.c     0x00000000   Number         0  hmac.o ABSOLUTE
    ..\..\..\..\..\cyclone_crypto\idea.c     0x00000000   Number         0  idea.o ABSOLUTE
    ..\..\..\..\..\cyclone_crypto\md5.c      0x00000000   Number         0  md5.o ABSOLUTE
    ..\..\..\..\..\cyclone_crypto\mpi.c      0x00000000   Number         0  mpi.o ABSOLUTE
    ..\..\..\..\..\cyclone_crypto\oid.c      0x00000000   Number         0  oid.o ABSOLUTE
    ..\..\..\..\..\cyclone_crypto\pem.c      0x00000000   Number         0  pem.o ABSOLUTE
    ..\..\..\..\..\cyclone_crypto\poly1305.c 0x00000000   Number         0  poly1305.o ABSOLUTE
    ..\..\..\..\..\cyclone_crypto\rc4.c      0x00000000   Number         0  rc4.o ABSOLUTE
    ..\..\..\..\..\cyclone_crypto\rsa.c      0x00000000   Number         0  rsa.o ABSOLUTE
    ..\..\..\..\..\cyclone_crypto\seed.c     0x00000000   Number         0  seed.o ABSOLUTE
    ..\..\..\..\..\cyclone_crypto\sha1.c     0x00000000   Number         0  sha1.o ABSOLUTE
    ..\..\..\..\..\cyclone_crypto\sha224.c   0x00000000   Number         0  sha224.o ABSOLUTE
    ..\..\..\..\..\cyclone_crypto\sha256.c   0x00000000   Number         0  sha256.o ABSOLUTE
    ..\..\..\..\..\cyclone_crypto\sha384.c   0x00000000   Number         0  sha384.o ABSOLUTE
    ..\..\..\..\..\cyclone_crypto\sha512.c   0x00000000   Number         0  sha512.o ABSOLUTE
    ..\..\..\..\..\cyclone_crypto\x509.c     0x00000000   Number         0  x509.o ABSOLUTE
    ..\..\..\..\..\cyclone_crypto\yarrow.c   0x00000000   Number         0  yarrow.o ABSOLUTE
    ..\..\..\..\..\cyclone_ssl\ssl_common.c  0x00000000   Number         0  ssl_common.o ABSOLUTE
    ..\..\..\..\..\cyclone_ssl\tls.c         0x00000000   Number         0  tls.o ABSOLUTE
    ..\..\..\..\..\cyclone_ssl\tls_cache.c   0x00000000   Number         0  tls_cache.o ABSOLUTE
    ..\..\..\..\..\cyclone_ssl\tls_cipher_suites.c 0x00000000   Number         0  tls_cipher_suites.o ABSOLUTE
    ..\..\..\..\..\cyclone_ssl\tls_client.c  0x00000000   Number         0  tls_client.o ABSOLUTE
    ..\..\..\..\..\cyclone_ssl\tls_common.c  0x00000000   Number         0  tls_common.o ABSOLUTE
    ..\..\..\..\..\cyclone_ssl\tls_io.c      0x00000000   Number         0  tls_io.o ABSOLUTE
    ..\..\..\..\..\cyclone_ssl\tls_misc.c    0x00000000   Number         0  tls_misc.o ABSOLUTE
    ..\..\..\..\..\cyclone_ssl\tls_record.c  0x00000000   Number         0  tls_record.o ABSOLUTE
    ..\..\..\..\..\cyclone_ssl\tls_server.c  0x00000000   Number         0  tls_server.o ABSOLUTE
    ..\..\..\..\..\cyclone_tcp\core\bsd_socket.c 0x00000000   Number         0  bsd_socket.o ABSOLUTE
    ..\..\..\..\..\cyclone_tcp\core\ethernet.c 0x00000000   Number         0  ethernet.o ABSOLUTE
    ..\..\..\..\..\cyclone_tcp\core\ip.c     0x00000000   Number         0  ip.o ABSOLUTE
    ..\..\..\..\..\cyclone_tcp\core\net.c    0x00000000   Number         0  net.o ABSOLUTE
    ..\..\..\..\..\cyclone_tcp\core\net_mem.c 0x00000000   Number         0  net_mem.o ABSOLUTE
    ..\..\..\..\..\cyclone_tcp\core\nic.c    0x00000000   Number         0  nic.o ABSOLUTE
    ..\..\..\..\..\cyclone_tcp\core\raw_socket.c 0x00000000   Number         0  raw_socket.o ABSOLUTE
    ..\..\..\..\..\cyclone_tcp\core\socket.c 0x00000000   Number         0  socket.o ABSOLUTE
    ..\..\..\..\..\cyclone_tcp\core\tcp.c    0x00000000   Number         0  tcp.o ABSOLUTE
    ..\..\..\..\..\cyclone_tcp\core\tcp_fsm.c 0x00000000   Number         0  tcp_fsm.o ABSOLUTE
    ..\..\..\..\..\cyclone_tcp\core\tcp_misc.c 0x00000000   Number         0  tcp_misc.o ABSOLUTE
    ..\..\..\..\..\cyclone_tcp\core\tcp_timer.c 0x00000000   Number         0  tcp_timer.o ABSOLUTE
    ..\..\..\..\..\cyclone_tcp\core\udp.c    0x00000000   Number         0  udp.o ABSOLUTE
    ..\..\..\..\..\cyclone_tcp\dhcp\dhcp_client.c 0x00000000   Number         0  dhcp_client.o ABSOLUTE
    ..\..\..\..\..\cyclone_tcp\dhcp\dhcp_common.c 0x00000000   Number         0  dhcp_common.o ABSOLUTE
    ..\..\..\..\..\cyclone_tcp\dhcp\dhcp_debug.c 0x00000000   Number         0  dhcp_debug.o ABSOLUTE
    ..\..\..\..\..\cyclone_tcp\dns\dns_cache.c 0x00000000   Number         0  dns_cache.o ABSOLUTE
    ..\..\..\..\..\cyclone_tcp\dns\dns_client.c 0x00000000   Number         0  dns_client.o ABSOLUTE
    ..\..\..\..\..\cyclone_tcp\dns\dns_common.c 0x00000000   Number         0  dns_common.o ABSOLUTE
    ..\..\..\..\..\cyclone_tcp\dns\dns_debug.c 0x00000000   Number         0  dns_debug.o ABSOLUTE
    ..\..\..\..\..\cyclone_tcp\drivers\dp83848.c 0x00000000   Number         0  dp83848.o ABSOLUTE
    ..\..\..\..\..\cyclone_tcp\drivers\stm32f2x7_eth.c 0x00000000   Number         0  stm32f2x7_eth.o ABSOLUTE
    ..\..\..\..\..\cyclone_tcp\http\http_server.c 0x00000000   Number         0  http_server.o ABSOLUTE
    ..\..\..\..\..\cyclone_tcp\http\http_server_auth.c 0x00000000   Number         0  http_server_auth.o ABSOLUTE
    ..\..\..\..\..\cyclone_tcp\http\http_server_misc.c 0x00000000   Number         0  http_server_misc.o ABSOLUTE
    ..\..\..\..\..\cyclone_tcp\http\mime.c   0x00000000   Number         0  mime.o ABSOLUTE
    ..\..\..\..\..\cyclone_tcp\http\ssi.c    0x00000000   Number         0  ssi.o ABSOLUTE
    ..\..\..\..\..\cyclone_tcp\ipv4\arp.c    0x00000000   Number         0  arp.o ABSOLUTE
    ..\..\..\..\..\cyclone_tcp\ipv4\icmp.c   0x00000000   Number         0  icmp.o ABSOLUTE
    ..\..\..\..\..\cyclone_tcp\ipv4\igmp.c   0x00000000   Number         0  igmp.o ABSOLUTE
    ..\..\..\..\..\cyclone_tcp\ipv4\ipv4.c   0x00000000   Number         0  ipv4.o ABSOLUTE
    ..\..\..\..\..\cyclone_tcp\ipv4\ipv4_frag.c 0x00000000   Number         0  ipv4_frag.o ABSOLUTE
    ..\..\..\..\..\cyclone_tcp\ipv6\icmpv6.c 0x00000000   Number         0  icmpv6.o ABSOLUTE
    ..\..\..\..\..\cyclone_tcp\ipv6\ipv6.c   0x00000000   Number         0  ipv6.o ABSOLUTE
    ..\..\..\..\..\cyclone_tcp\ipv6\ipv6_frag.c 0x00000000   Number         0  ipv6_frag.o ABSOLUTE
    ..\..\..\..\..\cyclone_tcp\ipv6\ipv6_misc.c 0x00000000   Number         0  ipv6_misc.o ABSOLUTE
    ..\..\..\..\..\cyclone_tcp\ipv6\ipv6_pmtu.c 0x00000000   Number         0  ipv6_pmtu.o ABSOLUTE
    ..\..\..\..\..\cyclone_tcp\ipv6\mld.c    0x00000000   Number         0  mld.o ABSOLUTE
    ..\..\..\..\..\cyclone_tcp\ipv6\ndp.c    0x00000000   Number         0  ndp.o ABSOLUTE
    ..\..\..\..\..\cyclone_tcp\ipv6\ndp_cache.c 0x00000000   Number         0  ndp_cache.o ABSOLUTE
    ..\..\..\..\..\cyclone_tcp\ipv6\ndp_misc.c 0x00000000   Number         0  ndp_misc.o ABSOLUTE
    ..\..\..\..\..\cyclone_tcp\ipv6\slaac.c  0x00000000   Number         0  slaac.o ABSOLUTE
    ..\..\..\..\..\cyclone_tcp\mdns\mdns_client.c 0x00000000   Number         0  mdns_client.o ABSOLUTE
    ..\..\..\..\..\cyclone_tcp\mdns\mdns_common.c 0x00000000   Number         0  mdns_common.o ABSOLUTE
    ..\..\..\..\..\cyclone_tcp\mdns\mdns_responder.c 0x00000000   Number         0  mdns_responder.o ABSOLUTE
    ..\..\..\..\..\cyclone_tcp\netbios\nbns_client.c 0x00000000   Number         0  nbns_client.o ABSOLUTE
    ..\..\..\..\..\cyclone_tcp\netbios\nbns_common.c 0x00000000   Number         0  nbns_common.o ABSOLUTE
    ..\..\..\..\..\cyclone_tcp\netbios\nbns_responder.c 0x00000000   Number         0  nbns_responder.o ABSOLUTE
    ..\..\..\..\..\cyclone_tcp\smtp\smtp_client.c 0x00000000   Number         0  smtp_client.o ABSOLUTE
    ..\..\..\..\common\freertos\croutine.c   0x00000000   Number         0  croutine.o ABSOLUTE
    ..\..\..\..\common\freertos\list.c       0x00000000   Number         0  list.o ABSOLUTE
    ..\..\..\..\common\freertos\portable\memmang\heap_3.c 0x00000000   Number         0  heap_3.o ABSOLUTE
    ..\..\..\..\common\freertos\portable\rvds\arm_cm3\port.c 0x00000000   Number         0  port.o ABSOLUTE
    ..\..\..\..\common\freertos\queue.c      0x00000000   Number         0  queue.o ABSOLUTE
    ..\..\..\..\common\freertos\tasks.c      0x00000000   Number         0  tasks.o ABSOLUTE
    ..\..\..\..\common\freertos\timers.c     0x00000000   Number         0  timers.o ABSOLUTE
    ..\..\..\..\common\st\boards\stm322xg_eval\stm322xg_eval.c 0x00000000   Number         0  stm322xg_eval.o ABSOLUTE
    ..\..\..\..\common\st\boards\stm322xg_eval\stm322xg_eval_fsmc_sram.c 0x00000000   Number         0  stm322xg_eval_fsmc_sram.o ABSOLUTE
    ..\..\..\..\common\st\boards\stm322xg_eval\stm322xg_eval_ioe.c 0x00000000   Number         0  stm322xg_eval_ioe.o ABSOLUTE
    ..\..\..\..\common\st\boards\stm322xg_eval\stm322xg_eval_lcd.c 0x00000000   Number         0  stm322xg_eval_lcd.o ABSOLUTE
    ..\..\..\..\common\st\stm32f2xx_std_periph_lib\src\misc.c 0x00000000   Number         0  misc.o ABSOLUTE
    ..\..\..\..\common\st\stm32f2xx_std_periph_lib\src\stm32f2xx_adc.c 0x00000000   Number         0  stm32f2xx_adc.o ABSOLUTE
    ..\..\..\..\common\st\stm32f2xx_std_periph_lib\src\stm32f2xx_can.c 0x00000000   Number         0  stm32f2xx_can.o ABSOLUTE
    ..\..\..\..\common\st\stm32f2xx_std_periph_lib\src\stm32f2xx_crc.c 0x00000000   Number         0  stm32f2xx_crc.o ABSOLUTE
    ..\..\..\..\common\st\stm32f2xx_std_periph_lib\src\stm32f2xx_cryp.c 0x00000000   Number         0  stm32f2xx_cryp.o ABSOLUTE
    ..\..\..\..\common\st\stm32f2xx_std_periph_lib\src\stm32f2xx_cryp_aes.c 0x00000000   Number         0  stm32f2xx_cryp_aes.o ABSOLUTE
    ..\..\..\..\common\st\stm32f2xx_std_periph_lib\src\stm32f2xx_cryp_des.c 0x00000000   Number         0  stm32f2xx_cryp_des.o ABSOLUTE
    ..\..\..\..\common\st\stm32f2xx_std_periph_lib\src\stm32f2xx_cryp_tdes.c 0x00000000   Number         0  stm32f2xx_cryp_tdes.o ABSOLUTE
    ..\..\..\..\common\st\stm32f2xx_std_periph_lib\src\stm32f2xx_dac.c 0x00000000   Number         0  stm32f2xx_dac.o ABSOLUTE
    ..\..\..\..\common\st\stm32f2xx_std_periph_lib\src\stm32f2xx_dbgmcu.c 0x00000000   Number         0  stm32f2xx_dbgmcu.o ABSOLUTE
    ..\..\..\..\common\st\stm32f2xx_std_periph_lib\src\stm32f2xx_dcmi.c 0x00000000   Number         0  stm32f2xx_dcmi.o ABSOLUTE
    ..\..\..\..\common\st\stm32f2xx_std_periph_lib\src\stm32f2xx_dma.c 0x00000000   Number         0  stm32f2xx_dma.o ABSOLUTE
    ..\..\..\..\common\st\stm32f2xx_std_periph_lib\src\stm32f2xx_exti.c 0x00000000   Number         0  stm32f2xx_exti.o ABSOLUTE
    ..\..\..\..\common\st\stm32f2xx_std_periph_lib\src\stm32f2xx_flash.c 0x00000000   Number         0  stm32f2xx_flash.o ABSOLUTE
    ..\..\..\..\common\st\stm32f2xx_std_periph_lib\src\stm32f2xx_fsmc.c 0x00000000   Number         0  stm32f2xx_fsmc.o ABSOLUTE
    ..\..\..\..\common\st\stm32f2xx_std_periph_lib\src\stm32f2xx_gpio.c 0x00000000   Number         0  stm32f2xx_gpio.o ABSOLUTE
    ..\..\..\..\common\st\stm32f2xx_std_periph_lib\src\stm32f2xx_hash.c 0x00000000   Number         0  stm32f2xx_hash.o ABSOLUTE
    ..\..\..\..\common\st\stm32f2xx_std_periph_lib\src\stm32f2xx_hash_md5.c 0x00000000   Number         0  stm32f2xx_hash_md5.o ABSOLUTE
    ..\..\..\..\common\st\stm32f2xx_std_periph_lib\src\stm32f2xx_hash_sha1.c 0x00000000   Number         0  stm32f2xx_hash_sha1.o ABSOLUTE
    ..\..\..\..\common\st\stm32f2xx_std_periph_lib\src\stm32f2xx_i2c.c 0x00000000   Number         0  stm32f2xx_i2c.o ABSOLUTE
    ..\..\..\..\common\st\stm32f2xx_std_periph_lib\src\stm32f2xx_iwdg.c 0x00000000   Number         0  stm32f2xx_iwdg.o ABSOLUTE
    ..\..\..\..\common\st\stm32f2xx_std_periph_lib\src\stm32f2xx_pwr.c 0x00000000   Number         0  stm32f2xx_pwr.o ABSOLUTE
    ..\..\..\..\common\st\stm32f2xx_std_periph_lib\src\stm32f2xx_rcc.c 0x00000000   Number         0  stm32f2xx_rcc.o ABSOLUTE
    ..\..\..\..\common\st\stm32f2xx_std_periph_lib\src\stm32f2xx_rng.c 0x00000000   Number         0  stm32f2xx_rng.o ABSOLUTE
    ..\..\..\..\common\st\stm32f2xx_std_periph_lib\src\stm32f2xx_rtc.c 0x00000000   Number         0  stm32f2xx_rtc.o ABSOLUTE
    ..\..\..\..\common\st\stm32f2xx_std_periph_lib\src\stm32f2xx_sdio.c 0x00000000   Number         0  stm32f2xx_sdio.o ABSOLUTE
    ..\..\..\..\common\st\stm32f2xx_std_periph_lib\src\stm32f2xx_spi.c 0x00000000   Number         0  stm32f2xx_spi.o ABSOLUTE
    ..\..\..\..\common\st\stm32f2xx_std_periph_lib\src\stm32f2xx_syscfg.c 0x00000000   Number         0  stm32f2xx_syscfg.o ABSOLUTE
    ..\..\..\..\common\st\stm32f2xx_std_periph_lib\src\stm32f2xx_tim.c 0x00000000   Number         0  stm32f2xx_tim.o ABSOLUTE
    ..\..\..\..\common\st\stm32f2xx_std_periph_lib\src\stm32f2xx_usart.c 0x00000000   Number         0  stm32f2xx_usart.o ABSOLUTE
    ..\..\..\..\common\st\stm32f2xx_std_periph_lib\src\stm32f2xx_wwdg.c 0x00000000   Number         0  stm32f2xx_wwdg.o ABSOLUTE
    ..\\..\\..\\..\\..\\cyclone_tcp\\drivers\\stm32f2x7_eth.c 0x00000000   Number         0  stm32f2x7_eth.o ABSOLUTE
    ..\\..\\..\\..\\common\\freertos\\portable\\rvds\\arm_cm3\\port.c 0x00000000   Number         0  port.o ABSOLUTE
    ..\\..\\..\\..\\common\\st\\boards\\stm322xg_eval\\stm322xg_eval.c 0x00000000   Number         0  stm322xg_eval.o ABSOLUTE
    ..\\..\\..\\..\\common\\st\\boards\\stm322xg_eval\\stm322xg_eval_fsmc_sram.c 0x00000000   Number         0  stm322xg_eval_fsmc_sram.o ABSOLUTE
    ..\\..\\..\\..\\common\\st\\boards\\stm322xg_eval\\stm322xg_eval_ioe.c 0x00000000   Number         0  stm322xg_eval_ioe.o ABSOLUTE
    ..\\..\\..\\..\\common\\st\\boards\\stm322xg_eval\\stm322xg_eval_lcd.c 0x00000000   Number         0  stm322xg_eval_lcd.o ABSOLUTE
    ..\\..\\..\\..\\common\\st\\stm32f2xx_std_periph_lib\\src\\misc.c 0x00000000   Number         0  misc.o ABSOLUTE
    ..\\..\\..\\..\\common\\st\\stm32f2xx_std_periph_lib\\src\\stm32f2xx_adc.c 0x00000000   Number         0  stm32f2xx_adc.o ABSOLUTE
    ..\\..\\..\\..\\common\\st\\stm32f2xx_std_periph_lib\\src\\stm32f2xx_can.c 0x00000000   Number         0  stm32f2xx_can.o ABSOLUTE
    ..\\..\\..\\..\\common\\st\\stm32f2xx_std_periph_lib\\src\\stm32f2xx_crc.c 0x00000000   Number         0  stm32f2xx_crc.o ABSOLUTE
    ..\\..\\..\\..\\common\\st\\stm32f2xx_std_periph_lib\\src\\stm32f2xx_cryp.c 0x00000000   Number         0  stm32f2xx_cryp.o ABSOLUTE
    ..\\..\\..\\..\\common\\st\\stm32f2xx_std_periph_lib\\src\\stm32f2xx_cryp_aes.c 0x00000000   Number         0  stm32f2xx_cryp_aes.o ABSOLUTE
    ..\\..\\..\\..\\common\\st\\stm32f2xx_std_periph_lib\\src\\stm32f2xx_cryp_des.c 0x00000000   Number         0  stm32f2xx_cryp_des.o ABSOLUTE
    ..\\..\\..\\..\\common\\st\\stm32f2xx_std_periph_lib\\src\\stm32f2xx_cryp_tdes.c 0x00000000   Number         0  stm32f2xx_cryp_tdes.o ABSOLUTE
    ..\\..\\..\\..\\common\\st\\stm32f2xx_std_periph_lib\\src\\stm32f2xx_dac.c 0x00000000   Number         0  stm32f2xx_dac.o ABSOLUTE
    ..\\..\\..\\..\\common\\st\\stm32f2xx_std_periph_lib\\src\\stm32f2xx_dbgmcu.c 0x00000000   Number         0  stm32f2xx_dbgmcu.o ABSOLUTE
    ..\\..\\..\\..\\common\\st\\stm32f2xx_std_periph_lib\\src\\stm32f2xx_dcmi.c 0x00000000   Number         0  stm32f2xx_dcmi.o ABSOLUTE
    ..\\..\\..\\..\\common\\st\\stm32f2xx_std_periph_lib\\src\\stm32f2xx_dma.c 0x00000000   Number         0  stm32f2xx_dma.o ABSOLUTE
    ..\\..\\..\\..\\common\\st\\stm32f2xx_std_periph_lib\\src\\stm32f2xx_exti.c 0x00000000   Number         0  stm32f2xx_exti.o ABSOLUTE
    ..\\..\\..\\..\\common\\st\\stm32f2xx_std_periph_lib\\src\\stm32f2xx_flash.c 0x00000000   Number         0  stm32f2xx_flash.o ABSOLUTE
    ..\\..\\..\\..\\common\\st\\stm32f2xx_std_periph_lib\\src\\stm32f2xx_fsmc.c 0x00000000   Number         0  stm32f2xx_fsmc.o ABSOLUTE
    ..\\..\\..\\..\\common\\st\\stm32f2xx_std_periph_lib\\src\\stm32f2xx_gpio.c 0x00000000   Number         0  stm32f2xx_gpio.o ABSOLUTE
    ..\\..\\..\\..\\common\\st\\stm32f2xx_std_periph_lib\\src\\stm32f2xx_hash.c 0x00000000   Number         0  stm32f2xx_hash.o ABSOLUTE
    ..\\..\\..\\..\\common\\st\\stm32f2xx_std_periph_lib\\src\\stm32f2xx_hash_md5.c 0x00000000   Number         0  stm32f2xx_hash_md5.o ABSOLUTE
    ..\\..\\..\\..\\common\\st\\stm32f2xx_std_periph_lib\\src\\stm32f2xx_hash_sha1.c 0x00000000   Number         0  stm32f2xx_hash_sha1.o ABSOLUTE
    ..\\..\\..\\..\\common\\st\\stm32f2xx_std_periph_lib\\src\\stm32f2xx_i2c.c 0x00000000   Number         0  stm32f2xx_i2c.o ABSOLUTE
    ..\\..\\..\\..\\common\\st\\stm32f2xx_std_periph_lib\\src\\stm32f2xx_iwdg.c 0x00000000   Number         0  stm32f2xx_iwdg.o ABSOLUTE
    ..\\..\\..\\..\\common\\st\\stm32f2xx_std_periph_lib\\src\\stm32f2xx_pwr.c 0x00000000   Number         0  stm32f2xx_pwr.o ABSOLUTE
    ..\\..\\..\\..\\common\\st\\stm32f2xx_std_periph_lib\\src\\stm32f2xx_rcc.c 0x00000000   Number         0  stm32f2xx_rcc.o ABSOLUTE
    ..\\..\\..\\..\\common\\st\\stm32f2xx_std_periph_lib\\src\\stm32f2xx_rng.c 0x00000000   Number         0  stm32f2xx_rng.o ABSOLUTE
    ..\\..\\..\\..\\common\\st\\stm32f2xx_std_periph_lib\\src\\stm32f2xx_rtc.c 0x00000000   Number         0  stm32f2xx_rtc.o ABSOLUTE
    ..\\..\\..\\..\\common\\st\\stm32f2xx_std_periph_lib\\src\\stm32f2xx_sdio.c 0x00000000   Number         0  stm32f2xx_sdio.o ABSOLUTE
    ..\\..\\..\\..\\common\\st\\stm32f2xx_std_periph_lib\\src\\stm32f2xx_spi.c 0x00000000   Number         0  stm32f2xx_spi.o ABSOLUTE
    ..\\..\\..\\..\\common\\st\\stm32f2xx_std_periph_lib\\src\\stm32f2xx_syscfg.c 0x00000000   Number         0  stm32f2xx_syscfg.o ABSOLUTE
    ..\\..\\..\\..\\common\\st\\stm32f2xx_std_periph_lib\\src\\stm32f2xx_tim.c 0x00000000   Number         0  stm32f2xx_tim.o ABSOLUTE
    ..\\..\\..\\..\\common\\st\\stm32f2xx_std_periph_lib\\src\\stm32f2xx_usart.c 0x00000000   Number         0  stm32f2xx_usart.o ABSOLUTE
    ..\\..\\..\\..\\common\\st\\stm32f2xx_std_periph_lib\\src\\stm32f2xx_wwdg.c 0x00000000   Number         0  stm32f2xx_wwdg.o ABSOLUTE
    ..\\src\\debug.c                         0x00000000   Number         0  debug.o ABSOLUTE
    ..\\src\\ext_int_driver.c                0x00000000   Number         0  ext_int_driver.o ABSOLUTE
    ..\\src\\lis302dl.c                      0x00000000   Number         0  lis302dl.o ABSOLUTE
    ..\\src\\main.c                          0x00000000   Number         0  main.o ABSOLUTE
    ..\\src\\stm32f2xx_it.c                  0x00000000   Number         0  stm32f2xx_it.o ABSOLUTE
    ..\\src\\system_stm32f2xx.c              0x00000000   Number         0  system_stm32f2xx.o ABSOLUTE
    ..\src\debug.c                           0x00000000   Number         0  debug.o ABSOLUTE
    ..\src\ext_int_driver.c                  0x00000000   Number         0  ext_int_driver.o ABSOLUTE
    ..\src\lis302dl.c                        0x00000000   Number         0  lis302dl.o ABSOLUTE
    ..\src\main.c                            0x00000000   Number         0  main.o ABSOLUTE
    ..\src\res.c                             0x00000000   Number         0  res.o ABSOLUTE
    ..\src\stm32f2xx_it.c                    0x00000000   Number         0  stm32f2xx_it.o ABSOLUTE
    ..\src\system_stm32f2xx.c                0x00000000   Number         0  system_stm32f2xx.o ABSOLUTE
    dc.s                                     0x00000000   Number         0  dc.o ABSOLUTE
    retarget.c                               0x00000000   Number         0  retarget.o ABSOLUTE
    startup_stm32f2xx.s                      0x00000000   Number         0  startup_stm32f2xx.o ABSOLUTE
    RESET                                    0x08000000   Section      388  startup_stm32f2xx.o(RESET)
    !!!main                                  0x08000184   Section        8  __main.o(!!!main)
    !!!scatter                               0x0800018c   Section       52  __scatter.o(!!!scatter)
    !!dczerorl2                              0x080001c0   Section       90  __dczerorl2.o(!!dczerorl2)
    !!handler_zi                             0x0800021c   Section       28  __scatter_zi.o(!!handler_zi)
    .ARM.Collect$$_printf_percent$$00000000  0x08000238   Section        0  _printf_percent.o(.ARM.Collect$$_printf_percent$$00000000)
    .ARM.Collect$$_printf_percent$$00000009  0x08000238   Section        6  _printf_d.o(.ARM.Collect$$_printf_percent$$00000009)
    .ARM.Collect$$_printf_percent$$0000000A  0x0800023e   Section        6  _printf_u.o(.ARM.Collect$$_printf_percent$$0000000A)
    .ARM.Collect$$_printf_percent$$0000000C  0x08000244   Section        6  _printf_x.o(.ARM.Collect$$_printf_percent$$0000000C)
    .ARM.Collect$$_printf_percent$$00000014  0x0800024a   Section        6  _printf_s.o(.ARM.Collect$$_printf_percent$$00000014)
    .ARM.Collect$$_printf_percent$$00000017  0x08000250   Section        4  _printf_percent_end.o(.ARM.Collect$$_printf_percent$$00000017)
    .ARM.Collect$$libinit$$00000000          0x08000254   Section        2  libinit.o(.ARM.Collect$$libinit$$00000000)
    .ARM.Collect$$libinit$$00000002          0x08000256   Section        0  libinit2.o(.ARM.Collect$$libinit$$00000002)
    .ARM.Collect$$libinit$$00000004          0x08000256   Section        0  libinit2.o(.ARM.Collect$$libinit$$00000004)
    .ARM.Collect$$libinit$$00000008          0x08000256   Section        8  libinit5.o(.ARM.Collect$$libinit$$00000008)
    .ARM.Collect$$libinit$$0000000A          0x0800025e   Section        0  libinit2.o(.ARM.Collect$$libinit$$0000000A)
    .ARM.Collect$$libinit$$0000000C          0x0800025e   Section        0  libinit2.o(.ARM.Collect$$libinit$$0000000C)
    .ARM.Collect$$libinit$$0000000E          0x0800025e   Section        0  libinit2.o(.ARM.Collect$$libinit$$0000000E)
    .ARM.Collect$$libinit$$0000000F          0x0800025e   Section        6  libinit2.o(.ARM.Collect$$libinit$$0000000F)
    .ARM.Collect$$libinit$$00000011          0x08000264   Section        0  libinit2.o(.ARM.Collect$$libinit$$00000011)
    .ARM.Collect$$libinit$$00000012          0x08000264   Section       12  libinit2.o(.ARM.Collect$$libinit$$00000012)
    .ARM.Collect$$libinit$$00000013          0x08000270   Section        0  libinit2.o(.ARM.Collect$$libinit$$00000013)
    .ARM.Collect$$libinit$$00000015          0x08000270   Section        0  libinit2.o(.ARM.Collect$$libinit$$00000015)
    .ARM.Collect$$libinit$$00000017          0x08000270   Section        0  libinit2.o(.ARM.Collect$$libinit$$00000017)
    .ARM.Collect$$libinit$$00000019          0x08000270   Section        0  libinit2.o(.ARM.Collect$$libinit$$00000019)
    .ARM.Collect$$libinit$$0000001B          0x08000270   Section        0  libinit2.o(.ARM.Collect$$libinit$$0000001B)
    .ARM.Collect$$libinit$$0000001D          0x08000270   Section        0  libinit2.o(.ARM.Collect$$libinit$$0000001D)
    .ARM.Collect$$libinit$$0000001F          0x08000270   Section        0  libinit2.o(.ARM.Collect$$libinit$$0000001F)
    .ARM.Collect$$libinit$$00000021          0x08000270   Section        0  libinit2.o(.ARM.Collect$$libinit$$00000021)
    .ARM.Collect$$libinit$$00000023          0x08000270   Section        0  libinit2.o(.ARM.Collect$$libinit$$00000023)
    .ARM.Collect$$libinit$$00000025          0x08000270   Section        0  libinit2.o(.ARM.Collect$$libinit$$00000025)
    .ARM.Collect$$libinit$$0000002C          0x08000270   Section        0  libinit2.o(.ARM.Collect$$libinit$$0000002C)
    .ARM.Collect$$libinit$$0000002E          0x08000270   Section        0  libinit2.o(.ARM.Collect$$libinit$$0000002E)
    .ARM.Collect$$libinit$$00000030          0x08000270   Section        0  libinit2.o(.ARM.Collect$$libinit$$00000030)
    .ARM.Collect$$libinit$$00000032          0x08000270   Section        0  libinit2.o(.ARM.Collect$$libinit$$00000032)
    .ARM.Collect$$libinit$$00000033          0x08000270   Section        2  libinit2.o(.ARM.Collect$$libinit$$00000033)
    .ARM.Collect$$libinit$$00002719          0x08000274   Section        8  libinit5.o(.ARM.Collect$$libinit$$00002719)
    __lit__00000000                          0x08000274   Data           4  libinit5.o(.ARM.Collect$$libinit$$00002719)
    __lit__00000001                          0x08000278   Data           4  libinit5.o(.ARM.Collect$$libinit$$00002719)
    .ARM.Collect$$libshutdown$$00000000      0x0800027c   Section        2  libshutdown.o(.ARM.Collect$$libshutdown$$00000000)
    .ARM.Collect$$libshutdown$$00000002      0x0800027e   Section        0  libshutdown2.o(.ARM.Collect$$libshutdown$$00000002)
    .ARM.Collect$$libshutdown$$00000004      0x0800027e   Section        0  libshutdown2.o(.ARM.Collect$$libshutdown$$00000004)
    .ARM.Collect$$libshutdown$$00000007      0x0800027e   Section        0  libshutdown2.o(.ARM.Collect$$libshutdown$$00000007)
    .ARM.Collect$$libshutdown$$0000000A      0x0800027e   Section        0  libshutdown2.o(.ARM.Collect$$libshutdown$$0000000A)
    .ARM.Collect$$libshutdown$$0000000C      0x0800027e   Section        0  libshutdown2.o(.ARM.Collect$$libshutdown$$0000000C)
    .ARM.Collect$$libshutdown$$0000000F      0x0800027e   Section        0  libshutdown2.o(.ARM.Collect$$libshutdown$$0000000F)
    .ARM.Collect$$libshutdown$$00000010      0x0800027e   Section        2  libshutdown2.o(.ARM.Collect$$libshutdown$$00000010)
    .ARM.Collect$$rtentry$$00000000          0x08000280   Section        0  __rtentry.o(.ARM.Collect$$rtentry$$00000000)
    .ARM.Collect$$rtentry$$00000002          0x08000280   Section        0  __rtentry2.o(.ARM.Collect$$rtentry$$00000002)
    .ARM.Collect$$rtentry$$00000007          0x08000280   Section        4  __rtentry7.o(.ARM.Collect$$rtentry$$00000007)
    .ARM.Collect$$rtentry$$00000009          0x08000284   Section        0  __rtentry2.o(.ARM.Collect$$rtentry$$00000009)
    .ARM.Collect$$rtentry$$0000000A          0x08000284   Section        4  __rtentry2.o(.ARM.Collect$$rtentry$$0000000A)
    .ARM.Collect$$rtentry$$0000000C          0x08000288   Section        0  __rtentry2.o(.ARM.Collect$$rtentry$$0000000C)
    .ARM.Collect$$rtentry$$0000000D          0x08000288   Section        8  __rtentry2.o(.ARM.Collect$$rtentry$$0000000D)
    .ARM.Collect$$rtentry$$00002718          0x08000290   Section        4  __rtentry7.o(.ARM.Collect$$rtentry$$00002718)
    __lit__00000000                          0x08000290   Data           4  __rtentry7.o(.ARM.Collect$$rtentry$$00002718)
    .ARM.Collect$$rtexit$$00000000           0x08000294   Section        2  rtexit.o(.ARM.Collect$$rtexit$$00000000)
    .ARM.Collect$$rtexit$$00000002           0x08000296   Section        0  rtexit2.o(.ARM.Collect$$rtexit$$00000002)
    .ARM.Collect$$rtexit$$00000003           0x08000296   Section        4  rtexit2.o(.ARM.Collect$$rtexit$$00000003)
    .ARM.Collect$$rtexit$$00000004           0x0800029a   Section        6  rtexit2.o(.ARM.Collect$$rtexit$$00000004)
    .emb_text                                0x080002a0   Section      162  port.o(.emb_text)
    .emb_text                                0x08000344   Section        0  maybetermalloc1.o(.emb_text)
    .text                                    0x08000344   Section       44  startup_stm32f2xx.o(.text)
    .text                                    0x08000370   Section        0  system_stm32f2xx.o(.text)
    SetSysClock                              0x08000371   Thumb Code   242  system_stm32f2xx.o(.text)
    SystemInit_ExtMemCtl                     0x08000463   Thumb Code   200  system_stm32f2xx.o(.text)
    .text                                    0x08000684   Section        0  stm32f2xx_it.o(.text)
    .text                                    0x08000698   Section        0  retarget.o(.text)
    .text                                    0x080006c0   Section        0  main.o(.text)
    .text                                    0x080018d4   Section        0  debug.o(.text)
    .text                                    0x08001a04   Section        0  lis302dl.o(.text)
    .text                                    0x08001ad8   Section        0  ext_int_driver.o(.text)
    .text                                    0x08001c2c   Section        0  endian.o(.text)
    .text                                    0x08001e74   Section        0  os_port_freertos.o(.text)
    .text                                    0x080020b0   Section        0  date_time.o(.text)
    .text                                    0x080023f8   Section        0  str.o(.text)
    .text                                    0x080024e8   Section        0  path.o(.text)
    .text                                    0x08002890   Section        0  resource_manager.o(.text)
    .text                                    0x08002adc   Section        0  net.o(.text)
    .text                                    0x0800343c   Section        0  net_mem.o(.text)
    .text                                    0x0800395c   Section        0  stm32f2x7_eth.o(.text)
    .text                                    0x08004140   Section        0  dp83848.o(.text)
    .text                                    0x080042e8   Section        0  nic.o(.text)
    .text                                    0x080045ec   Section        0  ethernet.o(.text)
    .text                                    0x08004c00   Section        0  arp.o(.text)
    .text                                    0x0800531c   Section        0  ipv4.o(.text)
    .text                                    0x08005cf4   Section        0  ipv4_frag.o(.text)
    .text                                    0x0800617a   Section        0  icmp.o(.text)
    .text                                    0x080063c4   Section        0  igmp.o(.text)
    .text                                    0x080068e4   Section        0  ipv6.o(.text)
    .text                                    0x080078e4   Section        0  ipv6_frag.o(.text)
    .text                                    0x08007e58   Section        0  ipv6_misc.o(.text)
    .text                                    0x08008740   Section        0  ipv6_pmtu.o(.text)
    .text                                    0x08008784   Section        0  icmpv6.o(.text)
    .text                                    0x08008bcc   Section        0  mld.o(.text)
    .text                                    0x08009088   Section        0  ndp.o(.text)
    .text                                    0x0800a37c   Section        0  ndp_cache.o(.text)
    .text                                    0x0800a66c   Section        0  ndp_misc.o(.text)
    .text                                    0x0800ab1c   Section        0  slaac.o(.text)
    .text                                    0x0800b178   Section        0  ip.o(.text)
    .text                                    0x0800b52c   Section        0  tcp.o(.text)
    .text                                    0x0800bd50   Section        0  tcp_fsm.o(.text)
    .text                                    0x0800c6e4   Section        0  tcp_misc.o(.text)
    .text                                    0x0800d9e0   Section        0  tcp_timer.o(.text)
    .text                                    0x0800dcb0   Section        0  udp.o(.text)
    .text                                    0x0800e2f4   Section        0  socket.o(.text)
    .text                                    0x0800ea54   Section        0  dns_cache.o(.text)
    .text                                    0x0800ec38   Section        0  dns_client.o(.text)
    .text                                    0x0800f224   Section        0  dns_common.o(.text)
    .text                                    0x0800f518   Section        0  nbns_client.o(.text)
    .text                                    0x0800f7ec   Section        0  nbns_responder.o(.text)
    .text                                    0x0800f974   Section        0  nbns_common.o(.text)
    .text                                    0x0800fc1c   Section        0  dhcp_client.o(.text)
    .text                                    0x08010c04   Section        0  dhcp_common.o(.text)
    .text                                    0x08010cb4   Section        0  http_server.o(.text)
    .text                                    0x080116f4   Section        0  http_server_auth.o(.text)
    .text                                    0x080117ec   Section        0  http_server_misc.o(.text)
    .text                                    0x0801217c   Section        0  mime.o(.text)
    .text                                    0x080121cc   Section        0  ssi.o(.text)
    .text                                    0x08012944   Section        0  smtp_client.o(.text)
    .text                                    0x080133c4   Section        0  tls.o(.text)
    .text                                    0x08013a58   Section        0  tls_cipher_suites.o(.text)
    .text                                    0x08013af8   Section        0  tls_client.o(.text)
    .text                                    0x080150e4   Section        0  tls_server.o(.text)
    .text                                    0x080166e4   Section        0  tls_common.o(.text)
    .text                                    0x080170d6   Section        0  tls_record.o(.text)
    .text                                    0x0801790e   Section        0  tls_io.o(.text)
    .text                                    0x0801796c   Section        0  tls_misc.o(.text)
    .text                                    0x08018ea4   Section        0  tls_cache.o(.text)
    .text                                    0x080190f0   Section        0  ssl_common.o(.text)
    .text                                    0x08019288   Section        0  base64.o(.text)
    .text                                    0x08019468   Section        0  md5.o(.text)
    .text                                    0x08019e9c   Section        0  sha1.o(.text)
    .text                                    0x0801a174   Section        0  sha224.o(.text)
    .text                                    0x0801a22c   Section        0  sha256.o(.text)
    .text                                    0x0801a558   Section        0  sha384.o(.text)
    .text                                    0x0801a658   Section        0  sha512.o(.text)
    .text                                    0x0801abc4   Section        0  hmac.o(.text)
    .text                                    0x0801ad22   Section        0  rc4.o(.text)
    .text                                    0x0801addc   Section        0  des.o(.text)
    .text                                    0x0801b468   Section        0  des3.o(.text)
    .text                                    0x0801b54c   Section        0  aes.o(.text)
    .text                                    0x0801bf78   Section        0  camellia.o(.text)
    .text                                    0x0801c714   Section        0  cipher_mode_cbc.o(.text)
    .text                                    0x0801c7de   Section        0  cipher_mode_ccm.o(.text)
    .text                                    0x0801cc6c   Section        0  cipher_mode_gcm.o(.text)
    .text                                    0x0801d170   Section        0  dh.o(.text)
    .text                                    0x0801d2f2   Section        0  rsa.o(.text)
    .text                                    0x0801da74   Section        0  dsa.o(.text)
    .text                                    0x0801e040   Section        0  ec.o(.text)
    .text                                    0x0801f208   Section        0  ec_curves.o(.text)
    .text                                    0x080200f0   Section        0  ecdh.o(.text)
    .text                                    0x08020298   Section        0  ecdsa.o(.text)
    .text                                    0x0802081c   Section        0  mpi.o(.text)
    .text                                    0x08021b54   Section        0  asn1.o(.text)
    .text                                    0x08021edc   Section        0  oid.o(.text)
    .text                                    0x080221ac   Section        0  x509.o(.text)
    .text                                    0x08023500   Section        0  pem.o(.text)
    .text                                    0x08024548   Section        0  yarrow.o(.text)
    .text                                    0x08024834   Section        0  port.o(.text)
    prvTaskExitError                         0x08024835   Thumb Code     8  port.o(.text)
    .text                                    0x08024914   Section        0  list.o(.text)
    .text                                    0x080249a8   Section        0  queue.o(.text)
    prvUnlockQueue                           0x08024a61   Thumb Code   126  queue.o(.text)
    prvIsQueueFull                           0x08024adf   Thumb Code    30  queue.o(.text)
    prvCopyDataToQueue                       0x08024afd   Thumb Code   128  queue.o(.text)
    prvIsQueueEmpty                          0x08024d91   Thumb Code    26  queue.o(.text)
    prvCopyDataFromQueue                     0x08024dab   Thumb Code    42  queue.o(.text)
    .text                                    0x08024ff4   Section        0  tasks.o(.text)
    prvInitialiseTaskLists                   0x08024ff5   Thumb Code    70  tasks.o(.text)
    prvInitialiseTCBVariables                0x0802503b   Thumb Code   100  tasks.o(.text)
    prvAllocateTCBAndStack                   0x0802509f   Thumb Code    66  tasks.o(.text)
    prvResetNextTaskUnblockTime              0x080251c9   Thumb Code    42  tasks.o(.text)
    prvAddCurrentTaskToDelayedList           0x0802547b   Thumb Code    62  tasks.o(.text)
    prvTaskIsTaskSuspended                   0x08025787   Thumb Code    56  tasks.o(.text)
    prvDeleteTCB                             0x080258c5   Thumb Code    18  tasks.o(.text)
    prvCheckTasksWaitingTermination          0x080258d7   Thumb Code    86  tasks.o(.text)
    prvIdleTask                              0x0802592d   Thumb Code    20  tasks.o(.text)
    prvTaskCheckFreeStackSpace               0x080259a5   Thumb Code    22  tasks.o(.text)
    prvListTaskWithinSingleList              0x080259bb   Thumb Code   176  tasks.o(.text)
    .text                                    0x080262ec   Section        0  heap_3.o(.text)
    .text                                    0x0802631c   Section        0  stm322xg_eval.o(.text)
    .text                                    0x080269c4   Section        0  stm322xg_eval_ioe.o(.text)
    IOE_DMA_Config                           0x080269c5   Thumb Code   118  stm322xg_eval_ioe.o(.text)
    delay                                    0x08026e8f   Thumb Code    32  stm322xg_eval_ioe.o(.text)
    IOE_I2C_Config                           0x08026fdf   Thumb Code    50  stm322xg_eval_ioe.o(.text)
    IOE_GPIO_Config                          0x08027011   Thumb Code   146  stm322xg_eval_ioe.o(.text)
    IOE_EXTI_Config                          0x08027177   Thumb Code   110  stm322xg_eval_ioe.o(.text)
    IOE_TS_Read_Z                            0x08027593   Thumb Code    20  stm322xg_eval_ioe.o(.text)
    IOE_TS_Read_Y                            0x080275a7   Thumb Code    46  stm322xg_eval_ioe.o(.text)
    IOE_TS_Read_X                            0x080275d5   Thumb Code    42  stm322xg_eval_ioe.o(.text)
    .text                                    0x080277a0   Section        0  stm322xg_eval_lcd.o(.text)
    delay                                    0x080279d7   Thumb Code    32  stm322xg_eval_lcd.o(.text)
    PutPixel                                 0x08028559   Thumb Code    42  stm322xg_eval_lcd.o(.text)
    LCD_PolyLineRelativeClosed               0x080286e5   Thumb Code   118  stm322xg_eval_lcd.o(.text)
    .text                                    0x08028a98   Section        0  misc.o(.text)
    .text                                    0x08028b78   Section        0  stm32f2xx_adc.o(.text)
    .text                                    0x08028fdc   Section        0  stm32f2xx_dma.o(.text)
    .text                                    0x08029384   Section        0  stm32f2xx_exti.o(.text)
    .text                                    0x080294a0   Section        0  stm32f2xx_fsmc.o(.text)
    .text                                    0x08029aa8   Section        0  stm32f2xx_gpio.o(.text)
    .text                                    0x08029cf4   Section        0  stm32f2xx_i2c.o(.text)
    .text                                    0x0802a11c   Section        0  stm32f2xx_rcc.o(.text)
    .text                                    0x0802a6a4   Section        0  stm32f2xx_rng.o(.text)
    .text                                    0x0802a744   Section        0  stm32f2xx_sdio.o(.text)
    .text                                    0x0802a920   Section        0  stm32f2xx_syscfg.o(.text)
    .text                                    0x0802a9ac   Section        0  stm32f2xx_usart.o(.text)
    .text                                    0x0802adc6   Section        2  use_no_semi.o(.text)
    .text                                    0x0802adc8   Section       16  rt_ctype_table.o(.text)
    .text                                    0x0802add8   Section        0  h1_alloc.o(.text)
    .text                                    0x0802ae36   Section        0  h1_free.o(.text)
    .text                                    0x0802ae84   Section        0  tolower.o(.text)
    .text                                    0x0802ae9e   Section        0  toupper.o(.text)
    .text                                    0x0802aebc   Section        0  __2printf.o(.text)
    .text                                    0x0802aed4   Section        0  __2fprintf.o(.text)
    .text                                    0x0802aee8   Section        0  __2sprintf.o(.text)
    .text                                    0x0802af14   Section        0  _printf_pad.o(.text)
    .text                                    0x0802af62   Section        0  _printf_str.o(.text)
    .text                                    0x0802afb4   Section        0  _printf_dec.o(.text)
    .text                                    0x0802b02c   Section        0  _printf_hex_int.o(.text)
    .text                                    0x0802b084   Section        0  __printf_flags_wp.o(.text)
    .text                                    0x0802b1bc   Section        0  atoi.o(.text)
    .text                                    0x0802b1d6   Section        0  strtoul.o(.text)
    .text                                    0x0802b248   Section        0  strtok_r.o(.text)
    .text                                    0x0802b24c   Section        0  strchr.o(.text)
    .text                                    0x0802b260   Section        0  memcmp.o(.text)
    .text                                    0x0802b2b8   Section        0  strcpy.o(.text)
    .text                                    0x0802b300   Section        0  strncasecmp.o(.text)
    .text                                    0x0802b332   Section        0  strcasecmp.o(.text)
    .text                                    0x0802b35c   Section        0  strrchr.o(.text)
    .text                                    0x0802b372   Section        0  strlen.o(.text)
    .text                                    0x0802b3b0   Section        0  strncmp.o(.text)
    .text                                    0x0802b446   Section        0  strcat.o(.text)
    .text                                    0x0802b45e   Section      138  rt_memcpy_v6.o(.text)
    .text                                    0x0802b4e8   Section      132  rt_memmove_v6.o(.text)
    .text                                    0x0802b56c   Section      100  rt_memcpy_w.o(.text)
    .text                                    0x0802b5d0   Section       16  aeabi_memset.o(.text)
    .text                                    0x0802b5e0   Section       68  rt_memclr.o(.text)
    .text                                    0x0802b624   Section       78  rt_memclr_w.o(.text)
    .text                                    0x0802b672   Section       86  strncpy.o(.text)
    .text                                    0x0802b6c8   Section      128  strcmpv7m.o(.text)
    .text                                    0x0802b748   Section        8  rt_heap_descriptor_intlibspace.o(.text)
    .text                                    0x0802b750   Section        8  rt_locale_intlibspace.o(.text)
    .text                                    0x0802b758   Section        8  rt_errno_addr_intlibspace.o(.text)
    .text                                    0x0802b760   Section        0  hguard.o(.text)
    .text                                    0x0802b764   Section        0  init_alloc.o(.text)
    .text                                    0x0802b7ee   Section        0  h1_init.o(.text)
    .text                                    0x0802b7fc   Section        0  _printf_intcommon.o(.text)
    .text                                    0x0802b8b0   Section        0  _printf_char_common.o(.text)
    _printf_input_char                       0x0802b8b1   Thumb Code    10  _printf_char_common.o(.text)
    .text                                    0x0802b8e0   Section        0  _sputc.o(.text)
    .text                                    0x0802b8ea   Section        0  _printf_char.o(.text)
    .text                                    0x0802b918   Section        0  _printf_char_file.o(.text)
    .text                                    0x0802b93c   Section        0  _strtoul.o(.text)
    .text                                    0x0802b9da   Section        0  strtol.o(.text)
    .text                                    0x0802ba4c   Section        0  strtok_int.o(.text)
    .text                                    0x0802ba90   Section      122  rt_memmove_w.o(.text)
    .text                                    0x0802bb0a   Section        0  h1_extend.o(.text)
    .text                                    0x0802bb3e   Section        0  _chval.o(.text)
    .text                                    0x0802bb5a   Section        0  defsig_rtmem_outer.o(.text)
    .text                                    0x0802bb68   Section        0  strcspn.o(.text)
    .text                                    0x0802bb88   Section        0  strspn.o(.text)
    .text                                    0x0802bba4   Section        0  exit.o(.text)
    .text                                    0x0802bbb6   Section        0  defsig_exit.o(.text)
    .text                                    0x0802bbc0   Section        0  defsig_rtmem_inner.o(.text)
    .text                                    0x0802bc10   Section        0  defsig_general.o(.text)
    i._is_digit                              0x0802bc42   Section        0  __printf_wp.o(i._is_digit)
    locale$$code                             0x0802bc50   Section       44  lc_ctype_c.o(locale$$code)
    x$fpl$dcmpinf                            0x0802bc7c   Section       24  dcmpi.o(x$fpl$dcmpinf)
    x$fpl$dflt                               0x0802bc94   Section       46  dflt_clz.o(x$fpl$dflt)
    x$fpl$dfltu                              0x0802bcc2   Section       38  dflt_clz.o(x$fpl$dfltu)
    x$fpl$dleqf                              0x0802bce8   Section      120  dleqf.o(x$fpl$dleqf)
    x$fpl$dnaninf                            0x0802bd60   Section      156  dnaninf.o(x$fpl$dnaninf)
    x$fpl$drleqf                             0x0802bdfc   Section      108  drleqf.o(x$fpl$drleqf)
    .constdata                               0x0802be68   Section    200548  res.o(.constdata)
    x$fpl$usenofp                            0x0802be68   Section        0  usenofp.o(x$fpl$usenofp)
    .constdata                               0x0805cdcc   Section       12  ext_int_driver.o(.constdata)
    .constdata                               0x0805cdd8   Section      210  date_time.o(.constdata)
    days                                     0x0805cdd8   Data          80  date_time.o(.constdata)
    months                                   0x0805ce28   Data         130  date_time.o(.constdata)
    .constdata                               0x0805ceac   Section       64  stm32f2x7_eth.o(.constdata)
    .constdata                               0x0805ceec   Section       20  dp83848.o(.constdata)
    .constdata                               0x0805cf00   Section       84  ethernet.o(.constdata)
    .constdata                               0x0805cf54   Section       96  ipv6.o(.constdata)
    .constdata                               0x0805cfb4   Section       40  ip.o(.constdata)
    .constdata                               0x0805cfdc   Section        7  dhcp_client.o(.constdata)
    .constdata                               0x0805cfe3   Section      277  http_server.o(.constdata)
    template                                 0x0805cfe3   Data         124  http_server.o(.constdata)
    template                                 0x0805d05f   Data         153  http_server.o(.constdata)
    .constdata                               0x0805d0f8   Section      496  http_server_misc.o(.constdata)
    statusCodeList                           0x0805d0f8   Data         480  http_server_misc.o(.constdata)
    hexDigit                                 0x0805d2d8   Data          16  http_server_misc.o(.constdata)
    .constdata                               0x0805d2e8   Section      401  mime.o(.constdata)
    mimeTypeList                             0x0805d2e8   Data         376  mime.o(.constdata)
    defaultMimeType                          0x0805d460   Data          25  mime.o(.constdata)
    .constdata                               0x0805d47c   Section     2780  tls_cipher_suites.o(.constdata)
    defaultName                              0x0805df50   Data           8  tls_cipher_suites.o(.constdata)
    .constdata                               0x0805df58   Section       96  ssl_common.o(.constdata)
    .constdata                               0x0805dfb8   Section      192  base64.o(.constdata)
    base64EncTable                           0x0805dfb8   Data          64  base64.o(.constdata)
    base64DecTable                           0x0805dff8   Data         128  base64.o(.constdata)
    .constdata                               0x0805e078   Section      368  md5.o(.constdata)
    padding                                  0x0805e078   Data          64  md5.o(.constdata)
    k                                        0x0805e0b8   Data         256  md5.o(.constdata)
    md5Oid                                   0x0805e1b8   Data           8  md5.o(.constdata)
    .constdata                               0x0805e1e8   Section      128  sha1.o(.constdata)
    padding                                  0x0805e1e8   Data          64  sha1.o(.constdata)
    k                                        0x0805e228   Data          16  sha1.o(.constdata)
    sha1Oid                                  0x0805e238   Data           5  sha1.o(.constdata)
    .constdata                               0x0805e268   Section       52  sha224.o(.constdata)
    sha224Oid                                0x0805e268   Data           9  sha224.o(.constdata)
    .constdata                               0x0805e29c   Section      372  sha256.o(.constdata)
    padding                                  0x0805e29c   Data          64  sha256.o(.constdata)
    k                                        0x0805e2dc   Data         256  sha256.o(.constdata)
    sha256Oid                                0x0805e3dc   Data           9  sha256.o(.constdata)
    .constdata                               0x0805e410   Section       52  sha384.o(.constdata)
    sha384Oid                                0x0805e410   Data           9  sha384.o(.constdata)
    .constdata                               0x0805e448   Section      820  sha512.o(.constdata)
    padding                                  0x0805e448   Data         128  sha512.o(.constdata)
    k                                        0x0805e4c8   Data         640  sha512.o(.constdata)
    sha512Oid                                0x0805e748   Data           9  sha512.o(.constdata)
    .constdata                               0x0805e77c   Section       36  rc4.o(.constdata)
    .constdata                               0x0805e7a0   Section     2084  des.o(.constdata)
    sp1                                      0x0805e7a0   Data         256  des.o(.constdata)
    sp2                                      0x0805e8a0   Data         256  des.o(.constdata)
    sp3                                      0x0805e9a0   Data         256  des.o(.constdata)
    sp4                                      0x0805eaa0   Data         256  des.o(.constdata)
    sp5                                      0x0805eba0   Data         256  des.o(.constdata)
    sp6                                      0x0805eca0   Data         256  des.o(.constdata)
    sp7                                      0x0805eda0   Data         256  des.o(.constdata)
    sp8                                      0x0805eea0   Data         256  des.o(.constdata)
    .constdata                               0x0805efc4   Section       36  des3.o(.constdata)
    .constdata                               0x0805efe8   Section     2640  aes.o(.constdata)
    sbox                                     0x0805efe8   Data         256  aes.o(.constdata)
    isbox                                    0x0805f0e8   Data         256  aes.o(.constdata)
    te                                       0x0805f1e8   Data        1024  aes.o(.constdata)
    td                                       0x0805f5e8   Data        1024  aes.o(.constdata)
    rcon                                     0x0805f9e8   Data          44  aes.o(.constdata)
    .constdata                               0x0805fa38   Section     1348  camellia.o(.constdata)
    ks1                                      0x0805fa38   Data         104  camellia.o(.constdata)
    ks2                                      0x0805faa0   Data         136  camellia.o(.constdata)
    sigma                                    0x0805fb28   Data          48  camellia.o(.constdata)
    sbox1                                    0x0805fb58   Data         256  camellia.o(.constdata)
    sbox2                                    0x0805fc58   Data         256  camellia.o(.constdata)
    sbox3                                    0x0805fd58   Data         256  camellia.o(.constdata)
    sbox4                                    0x0805fe58   Data         256  camellia.o(.constdata)
    .constdata                               0x0805ff7c   Section       98  rsa.o(.constdata)
    .constdata                               0x0805ffde   Section       86  dsa.o(.constdata)
    .constdata                               0x08060034   Section        7  ec.o(.constdata)
    .constdata                               0x0806003c   Section    10096  ec_curves.o(.constdata)
    .constdata                               0x080627ac   Section       75  ecdsa.o(.constdata)
    .constdata                               0x080627f7   Section       90  x509.o(.constdata)
    .constdata                               0x08062854   Section       28  yarrow.o(.constdata)
    .constdata                               0x08062870   Section       80  stm322xg_eval.o(.constdata)
    .constdata                               0x080628c0   Section    10704  stm322xg_eval_lcd.o(.constdata)
    .constdata                               0x08065290   Section       40  _printf_hex_int.o(.constdata)
    uc_hextab                                0x08065290   Data          20  _printf_hex_int.o(.constdata)
    lc_hextab                                0x080652a4   Data          20  _printf_hex_int.o(.constdata)
    .constdata                               0x080652b8   Section       17  __printf_flags_wp.o(.constdata)
    maptable                                 0x080652b8   Data          17  __printf_flags_wp.o(.constdata)
    .conststring                             0x080652cc   Section       96  dhcp_client.o(.conststring)
    .conststring                             0x0806532c   Section      973  mime.o(.conststring)
    .conststring                             0x080656fc   Section     2893  tls_cipher_suites.o(.conststring)
    .conststring                             0x0806624c   Section       40  tls_misc.o(.conststring)
    .conststring                             0x08066274   Section        4  md5.o(.conststring)
    .conststring                             0x08066278   Section        6  sha1.o(.conststring)
    .conststring                             0x08066280   Section        8  sha224.o(.conststring)
    .conststring                             0x08066288   Section        8  sha256.o(.conststring)
    .conststring                             0x08066290   Section        8  sha384.o(.conststring)
    .conststring                             0x08066298   Section        8  sha512.o(.conststring)
    .conststring                             0x080662a0   Section        4  rc4.o(.conststring)
    .conststring                             0x080662a4   Section        4  des.o(.conststring)
    .conststring                             0x080662a8   Section        5  des3.o(.conststring)
    .conststring                             0x080662b0   Section        4  aes.o(.conststring)
    .conststring                             0x080662b4   Section        9  camellia.o(.conststring)
    .conststring                             0x080662c0   Section      290  ec_curves.o(.conststring)
    .conststring                             0x080663e4   Section        7  yarrow.o(.conststring)
    locale$$data                             0x0806640c   Section      272  lc_ctype_c.o(locale$$data)
    __lcctype_c_name                         0x08066410   Data           2  lc_ctype_c.o(locale$$data)
    __lcctype_c_start                        0x08066418   Data           0  lc_ctype_c.o(locale$$data)
    __lcctype_c_end                          0x0806651c   Data           0  lc_ctype_c.o(locale$$data)
    .data                                    0x20000000   Section       20  system_stm32f2xx.o(.data)
    .data                                    0x20000014   Section       12  retarget.o(.data)
    .data                                    0x20000020   Section       24  main.o(.data)
    pageCounter                              0x20000034   Data           4  main.o(.data)
    .data                                    0x20000038   Section       28  net.o(.data)
    netTaskRunning                           0x20000044   Data           4  net.o(.data)
    netTimestamp                             0x20000048   Data           4  net.o(.data)
    prngState                                0x2000004c   Data           4  net.o(.data)
    callbackTableMutex                       0x20000050   Data           4  net.o(.data)
    .data                                    0x20000054   Section       12  stm32f2x7_eth.o(.data)
    nicDriverInterface                       0x20000054   Data           4  stm32f2x7_eth.o(.data)
    txCurDmaDesc                             0x20000058   Data           4  stm32f2x7_eth.o(.data)
    rxCurDmaDesc                             0x2000005c   Data           4  stm32f2x7_eth.o(.data)
    .data                                    0x20000060   Section        4  nic.o(.data)
    .data                                    0x20000064   Section        4  arp.o(.data)
    .data                                    0x20000068   Section        4  ipv4_frag.o(.data)
    .data                                    0x2000006c   Section        4  igmp.o(.data)
    .data                                    0x20000070   Section        4  ipv6_frag.o(.data)
    .data                                    0x20000074   Section        4  mld.o(.data)
    .data                                    0x20000078   Section        4  ndp.o(.data)
    .data                                    0x2000007c   Section        1  ip.o(.data)
    c                                        0x2000007c   Data           1  ip.o(.data)
    .data                                    0x20000080   Section        6  tcp.o(.data)
    tcpDynamicPort                           0x20000084   Data           2  tcp.o(.data)
    .data                                    0x20000088   Section        8  udp.o(.data)
    udpDynamicPort                           0x20000088   Data           2  udp.o(.data)
    .data                                    0x20000090   Section        4  dns_cache.o(.data)
    .data                                    0x20000094   Section       40  dhcp_client.o(.data)
    stateLabel                               0x20000098   Data          36  dhcp_client.o(.data)
    .data                                    0x200000bc   Section       20  tls_misc.o(.data)
    label                                    0x200000bc   Data          20  tls_misc.o(.data)
    .data                                    0x200000d0   Section        4  port.o(.data)
    uxCriticalNesting                        0x200000d0   Data           4  port.o(.data)
    .data                                    0x200000d4   Section       60  tasks.o(.data)
    pxDelayedTaskList                        0x200000d8   Data           4  tasks.o(.data)
    pxOverflowDelayedTaskList                0x200000dc   Data           4  tasks.o(.data)
    uxTasksDeleted                           0x200000e0   Data           4  tasks.o(.data)
    xIdleTaskHandle                          0x200000e4   Data           4  tasks.o(.data)
    uxCurrentNumberOfTasks                   0x200000e8   Data           4  tasks.o(.data)
    xTickCount                               0x200000ec   Data           4  tasks.o(.data)
    uxTopReadyPriority                       0x200000f0   Data           4  tasks.o(.data)
    xSchedulerRunning                        0x200000f4   Data           4  tasks.o(.data)
    uxPendedTicks                            0x200000f8   Data           4  tasks.o(.data)
    xYieldPending                            0x200000fc   Data           4  tasks.o(.data)
    xNumOfOverflows                          0x20000100   Data           4  tasks.o(.data)
    uxTaskNumber                             0x20000104   Data           4  tasks.o(.data)
    xNextTaskUnblockTime                     0x20000108   Data           4  tasks.o(.data)
    uxSchedulerSuspended                     0x2000010c   Data           4  tasks.o(.data)
    .data                                    0x20000110   Section       44  stm322xg_eval.o(.data)
    .data                                    0x2000013c   Section       20  stm322xg_eval_ioe.o(.data)
    _x                                       0x20000148   Data           2  stm322xg_eval_ioe.o(.data)
    _y                                       0x2000014a   Data           2  stm322xg_eval_ioe.o(.data)
    tmp                                      0x2000014c   Data           4  stm322xg_eval_ioe.o(.data)
    .data                                    0x20000150   Section       40  stm322xg_eval_lcd.o(.data)
    LCD_Currentfonts                         0x20000170   Data           4  stm322xg_eval_lcd.o(.data)
    .data                                    0x20000178   Section       16  stm32f2xx_rcc.o(.data)
    APBAHBPrescTable                         0x20000178   Data          16  stm32f2xx_rcc.o(.data)
    .bss                                     0x20000188   Section     8136  main.o(.bss)
    .bss                                     0x20002150   Section       64  date_time.o(.bss)
    buffer                                   0x20002150   Data          24  date_time.o(.bss)
    buffer                                   0x20002168   Data          40  date_time.o(.bss)
    .bss                                     0x20002190   Section     3124  net.o(.bss)
    callbackTable                            0x20002d7c   Data          72  net.o(.bss)
    .bss                                     0x20002dc4   Section    14112  stm32f2x7_eth.o(.bss)
    txBuffer                                 0x20002dc4   Data        4608  stm32f2x7_eth.o(.bss)
    rxBuffer                                 0x20003fc4   Data        9216  stm32f2x7_eth.o(.bss)
    txDmaDesc                                0x200063c4   Data          96  stm32f2x7_eth.o(.bss)
    rxDmaDesc                                0x20006424   Data         192  stm32f2x7_eth.o(.bss)
    .bss                                     0x200064e4   Section       42  ethernet.o(.bss)
    buffer                                   0x200064e4   Data          18  ethernet.o(.bss)
    buffer                                   0x200064f6   Data          24  ethernet.o(.bss)
    .bss                                     0x2000650e   Section       16  ipv4.o(.bss)
    buffer                                   0x2000650e   Data          16  ipv4.o(.bss)
    .bss                                     0x2000651e   Section       40  ipv6.o(.bss)
    buffer                                   0x2000651e   Data          40  ipv6.o(.bss)
    .bss                                     0x20006548   Section      160  udp.o(.bss)
    .bss                                     0x200065e8   Section    18816  socket.o(.bss)
    .bss                                     0x2000af68   Section      928  dns_cache.o(.bss)
    .bss                                     0x2000b308   Section       64  oid.o(.bss)
    buffer                                   0x2000b308   Data          64  oid.o(.bss)
    .bss                                     0x2000b348   Section      200  tasks.o(.bss)
    pxReadyTasksLists                        0x2000b348   Data         100  tasks.o(.bss)
    xDelayedTaskList1                        0x2000b3ac   Data          20  tasks.o(.bss)
    xDelayedTaskList2                        0x2000b3c0   Data          20  tasks.o(.bss)
    xPendingReadyList                        0x2000b3d4   Data          20  tasks.o(.bss)
    xTasksWaitingTermination                 0x2000b3e8   Data          20  tasks.o(.bss)
    xSuspendedTaskList                       0x2000b3fc   Data          20  tasks.o(.bss)
    .bss                                     0x2000b410   Section       60  stm322xg_eval.o(.bss)
    .bss                                     0x2000b44c   Section       96  libspace.o(.bss)
    STACK                                    0x2000b4b0   Section     1024  startup_stm32f2xx.o(STACK)
    __initial_sp                             0x2000b8b0   Data           0  startup_stm32f2xx.o(STACK)

    Global Symbols

    Symbol Name                              Value     Ov Type        Size  Object(Section)

    BuildAttributes$$THM_ISAv4$P$D$K$B$S$PE$A:L22UL41UL21$X:L11$S22US41US21$IEEE1$IW$USESV6$~STKCKD$USESV7$~SHL$OTIME$ROPI$EBA8$UX$STANDARDLIB$REQ8$PRES8$EABIv2 0x00000000   Number         0  anon$$obj.o ABSOLUTE
    __ARM_use_no_argv                        0x00000000   Number         0  main.o ABSOLUTE
    _printf_flags                            0x00000000   Number         0  printf_stubs.o ABSOLUTE
    _printf_return_value                     0x00000000   Number         0  printf_stubs.o ABSOLUTE
    _printf_sizespec                         0x00000000   Number         0  printf_stubs.o ABSOLUTE
    _printf_widthprec                        0x00000000   Number         0  printf_stubs.o ABSOLUTE
    Image$$ZI$$Limit                          - Undefined Weak Reference
    __ARM_exceptions_init                     - Undefined Weak Reference
    __alloca_initialize                       - Undefined Weak Reference
    __arm_preinit_                            - Undefined Weak Reference
    __cpp_initialize__aeabi_                  - Undefined Weak Reference
    __cxa_finalize                            - Undefined Weak Reference
    __sigvec_lookup                           - Undefined Weak Reference
    __user_heap_extent                        - Undefined Weak Reference
    _atexit_init                              - Undefined Weak Reference
    _call_atexit_fns                          - Undefined Weak Reference
    _clock_init                               - Undefined Weak Reference
    _fp_trap_init                             - Undefined Weak Reference
    _fp_trap_shutdown                         - Undefined Weak Reference
    _get_lc_collate                           - Undefined Weak Reference
    _get_lc_monetary                          - Undefined Weak Reference
    _get_lc_numeric                           - Undefined Weak Reference
    _get_lc_time                              - Undefined Weak Reference
    _getenv_init                              - Undefined Weak Reference
    _handle_redirection                       - Undefined Weak Reference
    _initio                                   - Undefined Weak Reference
    _mutex_acquire                            - Undefined Weak Reference
    _mutex_free                               - Undefined Weak Reference
    _mutex_release                            - Undefined Weak Reference
    _printf_mbtowc                            - Undefined Weak Reference
    _printf_truncate_signed                   - Undefined Weak Reference
    _printf_truncate_unsigned                 - Undefined Weak Reference
    _rand_init                                - Undefined Weak Reference
    _signal_finish                            - Undefined Weak Reference
    _signal_init                              - Undefined Weak Reference
    _terminateio                              - Undefined Weak Reference
    __Vectors_Size                           0x00000184   Number         0  startup_stm32f2xx.o ABSOLUTE
    __Vectors                                0x08000000   Data           4  startup_stm32f2xx.o(RESET)
    __Vectors_End                            0x08000184   Data           0  startup_stm32f2xx.o(RESET)
    __main                                   0x08000185   Thumb Code     8  __main.o(!!!main)
    __scatterload                            0x0800018d   Thumb Code     0  __scatter.o(!!!scatter)
    __scatterload_rt2                        0x0800018d   Thumb Code    44  __scatter.o(!!!scatter)
    __scatterload_rt2_thumb_only             0x0800018d   Thumb Code     0  __scatter.o(!!!scatter)
    __scatterload_null                       0x0800019b   Thumb Code     0  __scatter.o(!!!scatter)
    __decompress                             0x080001c1   Thumb Code    90  __dczerorl2.o(!!dczerorl2)
    __decompress1                            0x080001c1   Thumb Code     0  __dczerorl2.o(!!dczerorl2)
    __scatterload_zeroinit                   0x0800021d   Thumb Code    28  __scatter_zi.o(!!handler_zi)
    _printf_d                                0x08000239   Thumb Code     0  _printf_d.o(.ARM.Collect$$_printf_percent$$00000009)
    _printf_percent                          0x08000239   Thumb Code     0  _printf_percent.o(.ARM.Collect$$_printf_percent$$00000000)
    _printf_u                                0x0800023f   Thumb Code     0  _printf_u.o(.ARM.Collect$$_printf_percent$$0000000A)
    _printf_x                                0x08000245   Thumb Code     0  _printf_x.o(.ARM.Collect$$_printf_percent$$0000000C)
    _printf_s                                0x0800024b   Thumb Code     0  _printf_s.o(.ARM.Collect$$_printf_percent$$00000014)
    _printf_percent_end                      0x08000251   Thumb Code     0  _printf_percent_end.o(.ARM.Collect$$_printf_percent$$00000017)
    __rt_lib_init                            0x08000255   Thumb Code     0  libinit.o(.ARM.Collect$$libinit$$00000000)
    __rt_lib_init_fp_1                       0x08000257   Thumb Code     0  libinit2.o(.ARM.Collect$$libinit$$00000002)
    __rt_lib_init_heap_2                     0x08000257   Thumb Code     0  libinit5.o(.ARM.Collect$$libinit$$00000008)
    __rt_lib_init_preinit_1                  0x08000257   Thumb Code     0  libinit2.o(.ARM.Collect$$libinit$$00000004)
    __rt_lib_init_heap_1                     0x0800025f   Thumb Code     0  libinit2.o(.ARM.Collect$$libinit$$0000000A)
    __rt_lib_init_lc_common                  0x0800025f   Thumb Code     0  libinit2.o(.ARM.Collect$$libinit$$0000000F)
    __rt_lib_init_rand_1                     0x0800025f   Thumb Code     0  libinit2.o(.ARM.Collect$$libinit$$0000000E)
    __rt_lib_init_user_alloc_1               0x0800025f   Thumb Code     0  libinit2.o(.ARM.Collect$$libinit$$0000000C)
    __rt_lib_init_lc_collate_1               0x08000265   Thumb Code     0  libinit2.o(.ARM.Collect$$libinit$$00000011)
    __rt_lib_init_lc_ctype_2                 0x08000265   Thumb Code     0  libinit2.o(.ARM.Collect$$libinit$$00000012)
    __rt_lib_init_alloca_1                   0x08000271   Thumb Code     0  libinit2.o(.ARM.Collect$$libinit$$0000002E)
    __rt_lib_init_argv_1                     0x08000271   Thumb Code     0  libinit2.o(.ARM.Collect$$libinit$$0000002C)
    __rt_lib_init_atexit_1                   0x08000271   Thumb Code     0  libinit2.o(.ARM.Collect$$libinit$$0000001B)
    __rt_lib_init_clock_1                    0x08000271   Thumb Code     0  libinit2.o(.ARM.Collect$$libinit$$00000021)
    __rt_lib_init_cpp_1                      0x08000271   Thumb Code     0  libinit2.o(.ARM.Collect$$libinit$$00000032)
    __rt_lib_init_exceptions_1               0x08000271   Thumb Code     0  libinit2.o(.ARM.Collect$$libinit$$00000030)
    __rt_lib_init_fp_trap_1                  0x08000271   Thumb Code     0  libinit2.o(.ARM.Collect$$libinit$$0000001F)
    __rt_lib_init_getenv_1                   0x08000271   Thumb Code     0  libinit2.o(.ARM.Collect$$libinit$$00000023)
    __rt_lib_init_lc_ctype_1                 0x08000271   Thumb Code     0  libinit2.o(.ARM.Collect$$libinit$$00000013)
    __rt_lib_init_lc_monetary_1              0x08000271   Thumb Code     0  libinit2.o(.ARM.Collect$$libinit$$00000015)
    __rt_lib_init_lc_numeric_1               0x08000271   Thumb Code     0  libinit2.o(.ARM.Collect$$libinit$$00000017)
    __rt_lib_init_lc_time_1                  0x08000271   Thumb Code     0  libinit2.o(.ARM.Collect$$libinit$$00000019)
    __rt_lib_init_return                     0x08000271   Thumb Code     0  libinit2.o(.ARM.Collect$$libinit$$00000033)
    __rt_lib_init_signal_1                   0x08000271   Thumb Code     0  libinit2.o(.ARM.Collect$$libinit$$0000001D)
    __rt_lib_init_stdio_1                    0x08000271   Thumb Code     0  libinit2.o(.ARM.Collect$$libinit$$00000025)
    __rt_lib_shutdown                        0x0800027d   Thumb Code     0  libshutdown.o(.ARM.Collect$$libshutdown$$00000000)
    __rt_lib_shutdown_cpp_1                  0x0800027f   Thumb Code     0  libshutdown2.o(.ARM.Collect$$libshutdown$$00000002)
    __rt_lib_shutdown_fp_trap_1              0x0800027f   Thumb Code     0  libshutdown2.o(.ARM.Collect$$libshutdown$$00000007)
    __rt_lib_shutdown_heap_1                 0x0800027f   Thumb Code     0  libshutdown2.o(.ARM.Collect$$libshutdown$$0000000F)
    __rt_lib_shutdown_return                 0x0800027f   Thumb Code     0  libshutdown2.o(.ARM.Collect$$libshutdown$$00000010)
    __rt_lib_shutdown_signal_1               0x0800027f   Thumb Code     0  libshutdown2.o(.ARM.Collect$$libshutdown$$0000000A)
    __rt_lib_shutdown_stdio_1                0x0800027f   Thumb Code     0  libshutdown2.o(.ARM.Collect$$libshutdown$$00000004)
    __rt_lib_shutdown_user_alloc_1           0x0800027f   Thumb Code     0  libshutdown2.o(.ARM.Collect$$libshutdown$$0000000C)
    __rt_entry                               0x08000281   Thumb Code     0  __rtentry.o(.ARM.Collect$$rtentry$$00000000)
    __rt_entry_presh_1                       0x08000281   Thumb Code     0  __rtentry2.o(.ARM.Collect$$rtentry$$00000002)
    __rt_entry_sh                            0x08000281   Thumb Code     0  __rtentry7.o(.ARM.Collect$$rtentry$$00000007)
    __rt_entry_li                            0x08000285   Thumb Code     0  __rtentry2.o(.ARM.Collect$$rtentry$$0000000A)
    __rt_entry_postsh_1                      0x08000285   Thumb Code     0  __rtentry2.o(.ARM.Collect$$rtentry$$00000009)
    __rt_entry_main                          0x08000289   Thumb Code     0  __rtentry2.o(.ARM.Collect$$rtentry$$0000000D)
    __rt_entry_postli_1                      0x08000289   Thumb Code     0  __rtentry2.o(.ARM.Collect$$rtentry$$0000000C)
    __rt_exit                                0x08000295   Thumb Code     0  rtexit.o(.ARM.Collect$$rtexit$$00000000)
    __rt_exit_ls                             0x08000297   Thumb Code     0  rtexit2.o(.ARM.Collect$$rtexit$$00000003)
    __rt_exit_prels_1                        0x08000297   Thumb Code     0  rtexit2.o(.ARM.Collect$$rtexit$$00000002)
    __rt_exit_exit                           0x0800029b   Thumb Code     0  rtexit2.o(.ARM.Collect$$rtexit$$00000004)
    SVC_Handler                              0x080002a1   Thumb Code    32  port.o(.emb_text)
    __asm___6_port_c_39a90d8d__prvStartFirstTask 0x080002c5   Thumb Code    28  port.o(.emb_text)
    PendSV_Handler                           0x080002e5   Thumb Code    64  port.o(.emb_text)
    ulPortSetInterruptMask                   0x08000329   Thumb Code    14  port.o(.emb_text)
    vPortClearInterruptMask                  0x08000337   Thumb Code     6  port.o(.emb_text)
    vPortGetIPSR                             0x0800033d   Thumb Code     6  port.o(.emb_text)
    Reset_Handler                            0x08000345   Thumb Code     8  startup_stm32f2xx.o(.text)
    _maybe_terminate_alloc                   0x08000345   Thumb Code     0  maybetermalloc1.o(.emb_text)
    ADC_IRQHandler                           0x08000365   Thumb Code     0  startup_stm32f2xx.o(.text)
    CAN1_RX0_IRQHandler                      0x08000365   Thumb Code     0  startup_stm32f2xx.o(.text)
    CAN1_RX1_IRQHandler                      0x08000365   Thumb Code     0  startup_stm32f2xx.o(.text)
    CAN1_SCE_IRQHandler                      0x08000365   Thumb Code     0  startup_stm32f2xx.o(.text)
    CAN1_TX_IRQHandler                       0x08000365   Thumb Code     0  startup_stm32f2xx.o(.text)
    CAN2_RX0_IRQHandler                      0x08000365   Thumb Code     0  startup_stm32f2xx.o(.text)
    CAN2_RX1_IRQHandler                      0x08000365   Thumb Code     0  startup_stm32f2xx.o(.text)
    CAN2_SCE_IRQHandler                      0x08000365   Thumb Code     0  startup_stm32f2xx.o(.text)
    CAN2_TX_IRQHandler                       0x08000365   Thumb Code     0  startup_stm32f2xx.o(.text)
    CRYP_IRQHandler                          0x08000365   Thumb Code     0  startup_stm32f2xx.o(.text)
    DCMI_IRQHandler                          0x08000365   Thumb Code     0  startup_stm32f2xx.o(.text)
    DMA1_Stream0_IRQHandler                  0x08000365   Thumb Code     0  startup_stm32f2xx.o(.text)
    DMA1_Stream1_IRQHandler                  0x08000365   Thumb Code     0  startup_stm32f2xx.o(.text)
    DMA1_Stream2_IRQHandler                  0x08000365   Thumb Code     0  startup_stm32f2xx.o(.text)
    DMA1_Stream3_IRQHandler                  0x08000365   Thumb Code     0  startup_stm32f2xx.o(.text)
    DMA1_Stream4_IRQHandler                  0x08000365   Thumb Code     0  startup_stm32f2xx.o(.text)
    DMA1_Stream5_IRQHandler                  0x08000365   Thumb Code     0  startup_stm32f2xx.o(.text)
    DMA1_Stream6_IRQHandler                  0x08000365   Thumb Code     0  startup_stm32f2xx.o(.text)
    DMA1_Stream7_IRQHandler                  0x08000365   Thumb Code     0  startup_stm32f2xx.o(.text)
    DMA2_Stream0_IRQHandler                  0x08000365   Thumb Code     0  startup_stm32f2xx.o(.text)
    DMA2_Stream1_IRQHandler                  0x08000365   Thumb Code     0  startup_stm32f2xx.o(.text)
    DMA2_Stream2_IRQHandler                  0x08000365   Thumb Code     0  startup_stm32f2xx.o(.text)
    DMA2_Stream3_IRQHandler                  0x08000365   Thumb Code     0  startup_stm32f2xx.o(.text)
    DMA2_Stream4_IRQHandler                  0x08000365   Thumb Code     0  startup_stm32f2xx.o(.text)
    DMA2_Stream5_IRQHandler                  0x08000365   Thumb Code     0  startup_stm32f2xx.o(.text)
    DMA2_Stream6_IRQHandler                  0x08000365   Thumb Code     0  startup_stm32f2xx.o(.text)
    DMA2_Stream7_IRQHandler                  0x08000365   Thumb Code     0  startup_stm32f2xx.o(.text)
    ETH_WKUP_IRQHandler                      0x08000365   Thumb Code     0  startup_stm32f2xx.o(.text)
    EXTI0_IRQHandler                         0x08000365   Thumb Code     0  startup_stm32f2xx.o(.text)
    EXTI1_IRQHandler                         0x08000365   Thumb Code     0  startup_stm32f2xx.o(.text)
    EXTI2_IRQHandler                         0x08000365   Thumb Code     0  startup_stm32f2xx.o(.text)
    EXTI3_IRQHandler                         0x08000365   Thumb Code     0  startup_stm32f2xx.o(.text)
    EXTI4_IRQHandler                         0x08000365   Thumb Code     0  startup_stm32f2xx.o(.text)
    EXTI9_5_IRQHandler                       0x08000365   Thumb Code     0  startup_stm32f2xx.o(.text)
    FLASH_IRQHandler                         0x08000365   Thumb Code     0  startup_stm32f2xx.o(.text)
    FSMC_IRQHandler                          0x08000365   Thumb Code     0  startup_stm32f2xx.o(.text)
    HASH_RNG_IRQHandler                      0x08000365   Thumb Code     0  startup_stm32f2xx.o(.text)
    I2C1_ER_IRQHandler                       0x08000365   Thumb Code     0  startup_stm32f2xx.o(.text)
    I2C1_EV_IRQHandler                       0x08000365   Thumb Code     0  startup_stm32f2xx.o(.text)
    I2C2_ER_IRQHandler                       0x08000365   Thumb Code     0  startup_stm32f2xx.o(.text)
    I2C2_EV_IRQHandler                       0x08000365   Thumb Code     0  startup_stm32f2xx.o(.text)
    I2C3_ER_IRQHandler                       0x08000365   Thumb Code     0  startup_stm32f2xx.o(.text)
    I2C3_EV_IRQHandler                       0x08000365   Thumb Code     0  startup_stm32f2xx.o(.text)
    OTG_FS_IRQHandler                        0x08000365   Thumb Code     0  startup_stm32f2xx.o(.text)
    OTG_FS_WKUP_IRQHandler                   0x08000365   Thumb Code     0  startup_stm32f2xx.o(.text)
    OTG_HS_EP1_IN_IRQHandler                 0x08000365   Thumb Code     0  startup_stm32f2xx.o(.text)
    OTG_HS_EP1_OUT_IRQHandler                0x08000365   Thumb Code     0  startup_stm32f2xx.o(.text)
    OTG_HS_IRQHandler                        0x08000365   Thumb Code     0  startup_stm32f2xx.o(.text)
    OTG_HS_WKUP_IRQHandler                   0x08000365   Thumb Code     0  startup_stm32f2xx.o(.text)
    PVD_IRQHandler                           0x08000365   Thumb Code     0  startup_stm32f2xx.o(.text)
    RCC_IRQHandler                           0x08000365   Thumb Code     0  startup_stm32f2xx.o(.text)
    RTC_Alarm_IRQHandler                     0x08000365   Thumb Code     0  startup_stm32f2xx.o(.text)
    RTC_WKUP_IRQHandler                      0x08000365   Thumb Code     0  startup_stm32f2xx.o(.text)
    SDIO_IRQHandler                          0x08000365   Thumb Code     0  startup_stm32f2xx.o(.text)
    SPI1_IRQHandler                          0x08000365   Thumb Code     0  startup_stm32f2xx.o(.text)
    SPI2_IRQHandler                          0x08000365   Thumb Code     0  startup_stm32f2xx.o(.text)
    SPI3_IRQHandler                          0x08000365   Thumb Code     0  startup_stm32f2xx.o(.text)
    TAMP_STAMP_IRQHandler                    0x08000365   Thumb Code     0  startup_stm32f2xx.o(.text)
    TIM1_BRK_TIM9_IRQHandler                 0x08000365   Thumb Code     0  startup_stm32f2xx.o(.text)
    TIM1_CC_IRQHandler                       0x08000365   Thumb Code     0  startup_stm32f2xx.o(.text)
    TIM1_TRG_COM_TIM11_IRQHandler            0x08000365   Thumb Code     0  startup_stm32f2xx.o(.text)
    TIM1_UP_TIM10_IRQHandler                 0x08000365   Thumb Code     0  startup_stm32f2xx.o(.text)
    TIM2_IRQHandler                          0x08000365   Thumb Code     0  startup_stm32f2xx.o(.text)
    TIM3_IRQHandler                          0x08000365   Thumb Code     0  startup_stm32f2xx.o(.text)
    TIM4_IRQHandler                          0x08000365   Thumb Code     0  startup_stm32f2xx.o(.text)
    TIM5_IRQHandler                          0x08000365   Thumb Code     0  startup_stm32f2xx.o(.text)
    TIM6_DAC_IRQHandler                      0x08000365   Thumb Code     0  startup_stm32f2xx.o(.text)
    TIM7_IRQHandler                          0x08000365   Thumb Code     0  startup_stm32f2xx.o(.text)
    TIM8_BRK_TIM12_IRQHandler                0x08000365   Thumb Code     0  startup_stm32f2xx.o(.text)
    TIM8_CC_IRQHandler                       0x08000365   Thumb Code     0  startup_stm32f2xx.o(.text)
    TIM8_TRG_COM_TIM14_IRQHandler            0x08000365   Thumb Code     0  startup_stm32f2xx.o(.text)
    TIM8_UP_TIM13_IRQHandler                 0x08000365   Thumb Code     0  startup_stm32f2xx.o(.text)
    UART4_IRQHandler                         0x08000365   Thumb Code     0  startup_stm32f2xx.o(.text)
    UART5_IRQHandler                         0x08000365   Thumb Code     0  startup_stm32f2xx.o(.text)
    USART1_IRQHandler                        0x08000365   Thumb Code     0  startup_stm32f2xx.o(.text)
    USART2_IRQHandler                        0x08000365   Thumb Code     0  startup_stm32f2xx.o(.text)
    USART3_IRQHandler                        0x08000365   Thumb Code     0  startup_stm32f2xx.o(.text)
    USART6_IRQHandler                        0x08000365   Thumb Code     0  startup_stm32f2xx.o(.text)
    WWDG_IRQHandler                          0x08000365   Thumb Code     0  startup_stm32f2xx.o(.text)
    SystemInit                               0x0800052b   Thumb Code    70  system_stm32f2xx.o(.text)
    SystemCoreClockUpdate                    0x08000571   Thumb Code   174  system_stm32f2xx.o(.text)
    NMI_Handler                              0x08000685   Thumb Code     2  stm32f2xx_it.o(.text)
    HardFault_Handler                        0x08000687   Thumb Code     4  stm32f2xx_it.o(.text)
    MemManage_Handler                        0x0800068b   Thumb Code     4  stm32f2xx_it.o(.text)
    BusFault_Handler                         0x0800068f   Thumb Code     4  stm32f2xx_it.o(.text)
    UsageFault_Handler                       0x08000693   Thumb Code     4  stm32f2xx_it.o(.text)
    DebugMon_Handler                         0x08000697   Thumb Code     2  stm32f2xx_it.o(.text)
    fgetc                                    0x08000699   Thumb Code     8  retarget.o(.text)
    ferror                                   0x080006a1   Thumb Code     8  retarget.o(.text)
    _ttywrch                                 0x080006a9   Thumb Code    14  retarget.o(.text)
    _sys_exit                                0x080006b7   Thumb Code     4  retarget.o(.text)
    lcdSetCursor                             0x080006c1   Thumb Code    30  main.o(.text)
    lcdPutChar                               0x080006df   Thumb Code   120  main.o(.text)
    adc3Init                                 0x08000757   Thumb Code   118  main.o(.text)
    userTask                                 0x080007cd   Thumb Code   208  main.o(.text)
    blinkTask                                0x0800089d   Thumb Code    30  main.o(.text)
    httpServerUriNotFoundCallback            0x080008bb   Thumb Code  1348  main.o(.text)
    httpServerCgiCallback                    0x08000dff   Thumb Code  1058  main.o(.text)
    httpServerAuthCallback                   0x08001221   Thumb Code    92  main.o(.text)
    main                                     0x0800127d   Thumb Code  1624  main.o(.text)
    debugInit                                0x080018d5   Thumb Code   124  debug.o(.text)
    debugDisplayArray                        0x08001951   Thumb Code    74  debug.o(.text)
    fputc                                    0x0800199b   Thumb Code    74  debug.o(.text)
    lis302dlWriteReg                         0x08001a05   Thumb Code    28  lis302dl.o(.text)
    lis302dlReadReg                          0x08001a21   Thumb Code    20  lis302dl.o(.text)
    lis302dlInit                             0x08001a35   Thumb Code    66  lis302dl.o(.text)
    lis302dlGetAcc                           0x08001a77   Thumb Code    50  lis302dl.o(.text)
    extIntInit                               0x08001ad9   Thumb Code   216  ext_int_driver.o(.text)
    extIntEnableIrq                          0x08001bb1   Thumb Code    26  ext_int_driver.o(.text)
    extIntDisableIrq                         0x08001bcb   Thumb Code    22  ext_int_driver.o(.text)
    EXTI15_10_IRQHandler                     0x08001be1   Thumb Code    50  ext_int_driver.o(.text)
    _swap16                                  0x08001c2d   Thumb Code    12  endian.o(.text)
    _swap32                                  0x08001c39   Thumb Code    26  endian.o(.text)
    _swap64                                  0x08001c53   Thumb Code   132  endian.o(.text)
    reverse8                                 0x08001cd7   Thumb Code    40  endian.o(.text)
    reverse16                                0x08001cff   Thumb Code    64  endian.o(.text)
    reverse32                                0x08001d3f   Thumb Code    64  endian.o(.text)
    reverse64                                0x08001d7f   Thumb Code   240  endian.o(.text)
    osInitKernel                             0x08001e75   Thumb Code     2  os_port_freertos.o(.text)
    osStartKernel                            0x08001e77   Thumb Code     8  os_port_freertos.o(.text)
    osCreateTask                             0x08001e7f   Thumb Code    66  os_port_freertos.o(.text)
    osDeleteTask                             0x08001ec1   Thumb Code    12  os_port_freertos.o(.text)
    osDelayTask                              0x08001ecd   Thumb Code    12  os_port_freertos.o(.text)
    osSwitchTask                             0x08001ed9   Thumb Code     8  os_port_freertos.o(.text)
    osSuspendAllTasks                        0x08001ee1   Thumb Code    16  os_port_freertos.o(.text)
    osResumeAllTasks                         0x08001ef1   Thumb Code    16  os_port_freertos.o(.text)
    osCreateEvent                            0x08001f01   Thumb Code    56  os_port_freertos.o(.text)
    osDeleteEvent                            0x08001f39   Thumb Code    16  os_port_freertos.o(.text)
    osSetEvent                               0x08001f49   Thumb Code    18  os_port_freertos.o(.text)
    osResetEvent                             0x08001f5b   Thumb Code    18  os_port_freertos.o(.text)
    osWaitForEvent                           0x08001f6d   Thumb Code    44  os_port_freertos.o(.text)
    osSetEventFromIsr                        0x08001f99   Thumb Code    20  os_port_freertos.o(.text)
    osCreateSemaphore                        0x08001fad   Thumb Code    28  os_port_freertos.o(.text)
    osDeleteSemaphore                        0x08001fc9   Thumb Code    16  os_port_freertos.o(.text)
    osWaitForSemaphore                       0x08001fd9   Thumb Code    44  os_port_freertos.o(.text)
    osReleaseSemaphore                       0x08002005   Thumb Code    18  os_port_freertos.o(.text)
    osCreateMutex                            0x08002017   Thumb Code    24  os_port_freertos.o(.text)
    osDeleteMutex                            0x0800202f   Thumb Code    16  os_port_freertos.o(.text)
    osAcquireMutex                           0x0800203f   Thumb Code    18  os_port_freertos.o(.text)
    osReleaseMutex                           0x08002051   Thumb Code    18  os_port_freertos.o(.text)
    osGetSystemTime                          0x08002063   Thumb Code    12  os_port_freertos.o(.text)
    osAllocMem                               0x0800206f   Thumb Code    16  os_port_freertos.o(.text)
    osFreeMem                                0x0800207f   Thumb Code    14  os_port_freertos.o(.text)
    vApplicationStackOverflowHook            0x0800208d   Thumb Code     8  os_port_freertos.o(.text)
    vAssertCalled                            0x08002095   Thumb Code    28  os_port_freertos.o(.text)
    formatSystemTime                         0x080020b1   Thumb Code   138  date_time.o(.text)
    formatDate                               0x0800213b   Thumb Code   144  date_time.o(.text)
    computeDayOfWeek                         0x080021cb   Thumb Code    80  date_time.o(.text)
    convertUnixTimeToDate                    0x0800221b   Thumb Code   216  date_time.o(.text)
    getCurrentUnixTime                       0x080022f3   Thumb Code     4  date_time.o(.text)
    getCurrentDate                           0x080022f7   Thumb Code    20  date_time.o(.text)
    convertDateToUnixTime                    0x0800230b   Thumb Code   100  date_time.o(.text)
    strDuplicate                             0x080023f9   Thumb Code    40  str.o(.text)
    strTrimWhitespace                        0x08002421   Thumb Code    72  str.o(.text)
    strRemoveTrailingSpace                   0x08002469   Thumb Code    46  str.o(.text)
    strReplaceChar                           0x08002497   Thumb Code    18  str.o(.text)
    strSafeCopy                              0x080024a9   Thumb Code    62  str.o(.text)
    pathIsAbsolute                           0x080024e9   Thumb Code    22  path.o(.text)
    pathIsRelative                           0x080024ff   Thumb Code    22  path.o(.text)
    pathFindFileName                         0x08002515   Thumb Code    72  path.o(.text)
    pathCanonicalize                         0x0800255d   Thumb Code   482  path.o(.text)
    pathAddSlash                             0x0800273f   Thumb Code    58  path.o(.text)
    pathRemoveSlash                          0x08002779   Thumb Code    52  path.o(.text)
    pathCombine                              0x080027ad   Thumb Code    98  path.o(.text)
    pathMatch                                0x0800280f   Thumb Code   118  path.o(.text)
    resGetData                               0x08002891   Thumb Code   292  resource_manager.o(.text)
    resSearchFile                            0x080029b5   Thumb Code   290  resource_manager.o(.text)
    netTick                                  0x08002add   Thumb Code   586  net.o(.text)
    netTask                                  0x08002d27   Thumb Code   230  net.o(.text)
    netInit                                  0x08002e0d   Thumb Code   330  net.o(.text)
    netSetMacAddr                            0x08002f57   Thumb Code    54  net.o(.text)
    netGetMacAddr                            0x08002f8d   Thumb Code    42  net.o(.text)
    netSetEui64                              0x08002fb7   Thumb Code    38  net.o(.text)
    netGetEui64                              0x08002fdd   Thumb Code    38  net.o(.text)
    netSetInterfaceId                        0x08003003   Thumb Code    30  net.o(.text)
    netSetInterfaceName                      0x08003021   Thumb Code    42  net.o(.text)
    netSetHostname                           0x0800304b   Thumb Code    42  net.o(.text)
    netSetProxy                              0x08003075   Thumb Code    46  net.o(.text)
    netSetDriver                             0x080030a3   Thumb Code    44  net.o(.text)
    netSetPhyDriver                          0x080030cf   Thumb Code    32  net.o(.text)
    netSetPhyAddr                            0x080030ef   Thumb Code    40  net.o(.text)
    netSetSpiDriver                          0x08003117   Thumb Code    32  net.o(.text)
    netSetUartDriver                         0x08003137   Thumb Code    32  net.o(.text)
    netSetExtIntDriver                       0x08003157   Thumb Code    32  net.o(.text)
    netSetLinkState                          0x08003177   Thumb Code    42  net.o(.text)
    netGetLinkState                          0x080031a1   Thumb Code    28  net.o(.text)
    netConfigInterface                       0x080031bd   Thumb Code   222  net.o(.text)
    netGetDefaultInterface                   0x0800329b   Thumb Code     4  net.o(.text)
    netInitRand                              0x0800329f   Thumb Code    16  net.o(.text)
    netGetRand                               0x080032af   Thumb Code   174  net.o(.text)
    netGetRandRange                          0x0800335d   Thumb Code    26  net.o(.text)
    netAttachLinkChangeCallback              0x08003377   Thumb Code    80  net.o(.text)
    netDetachLinkChangeCallback              0x080033c7   Thumb Code    42  net.o(.text)
    netInvokeLinkChangeCallback              0x080033f1   Thumb Code    68  net.o(.text)
    memPoolInit                              0x0800343d   Thumb Code     4  net_mem.o(.text)
    memPoolAlloc                             0x08003441   Thumb Code    36  net_mem.o(.text)
    memPoolFree                              0x08003465   Thumb Code    12  net_mem.o(.text)
    memPoolGetStats                          0x08003471   Thumb Code    20  net_mem.o(.text)
    netBufferSetLength                       0x08003485   Thumb Code   202  net_mem.o(.text)
    netBufferFree                            0x0800354f   Thumb Code    20  net_mem.o(.text)
    netBufferAlloc                           0x08003563   Thumb Code    70  net_mem.o(.text)
    netBufferGetLength                       0x080035a9   Thumb Code    30  net_mem.o(.text)
    netBufferAt                              0x080035c7   Thumb Code    58  net_mem.o(.text)
    netBufferConcat                          0x08003601   Thumb Code   190  net_mem.o(.text)
    netBufferCopy                            0x080036bf   Thumb Code   318  net_mem.o(.text)
    netBufferAppend                          0x080037fd   Thumb Code    88  net_mem.o(.text)
    netBufferWrite                           0x08003855   Thumb Code   132  net_mem.o(.text)
    netBufferRead                            0x080038d9   Thumb Code   132  net_mem.o(.text)
    stm32f2x7EthInitDmaDesc                  0x0800395d   Thumb Code   248  stm32f2x7_eth.o(.text)
    stm32f2x7EthInitGpio                     0x08003a55   Thumb Code   334  stm32f2x7_eth.o(.text)
    stm32f2x7EthInit                         0x08003ba3   Thumb Code   396  stm32f2x7_eth.o(.text)
    stm32f2x7EthTick                         0x08003d2f   Thumb Code   154  stm32f2x7_eth.o(.text)
    stm32f2x7EthEnableIrq                    0x08003dc9   Thumb Code    38  stm32f2x7_eth.o(.text)
    stm32f2x7EthDisableIrq                   0x08003def   Thumb Code    34  stm32f2x7_eth.o(.text)
    ETH_IRQHandler                           0x08003e11   Thumb Code    96  stm32f2x7_eth.o(.text)
    stm32f2x7EthReceivePacket                0x08003e71   Thumb Code   144  stm32f2x7_eth.o(.text)
    stm32f2x7EthEventHandler                 0x08003f01   Thumb Code    50  stm32f2x7_eth.o(.text)
    stm32f2x7EthSendPacket                   0x08003f33   Thumb Code   156  stm32f2x7_eth.o(.text)
    stm32f2x7EthCalcCrc                      0x08003fcf   Thumb Code    60  stm32f2x7_eth.o(.text)
    stm32f2x7EthSetMulticastFilter           0x0800400b   Thumb Code    92  stm32f2x7_eth.o(.text)
    stm32f2x7EthUpdateMacConfig              0x08004067   Thumb Code    50  stm32f2x7_eth.o(.text)
    stm32f2x7EthWritePhyReg                  0x08004099   Thumb Code    62  stm32f2x7_eth.o(.text)
    stm32f2x7EthReadPhyReg                   0x080040d7   Thumb Code    62  stm32f2x7_eth.o(.text)
    dp83848WritePhyReg                       0x08004141   Thumb Code    42  dp83848.o(.text)
    dp83848DumpPhyReg                        0x0800416b   Thumb Code    16  dp83848.o(.text)
    dp83848ReadPhyReg                        0x0800417b   Thumb Code    34  dp83848.o(.text)
    dp83848Init                              0x0800419d   Thumb Code   100  dp83848.o(.text)
    dp83848Tick                              0x08004201   Thumb Code    58  dp83848.o(.text)
    dp83848EnableIrq                         0x0800423b   Thumb Code    16  dp83848.o(.text)
    dp83848DisableIrq                        0x0800424b   Thumb Code    16  dp83848.o(.text)
    dp83848EventHandler                      0x0800425b   Thumb Code    98  dp83848.o(.text)
    nicTick                                  0x080042e9   Thumb Code    34  nic.o(.text)
    nicSendPacket                            0x0800430b   Thumb Code    74  nic.o(.text)
    nicSetMulticastFilter                    0x08004355   Thumb Code    38  nic.o(.text)
    nicProcessPacket                         0x0800437b   Thumb Code    92  nic.o(.text)
    nicNotifyLinkChange                      0x080043d7   Thumb Code   294  nic.o(.text)
    ethInit                                  0x080045ed   Thumb Code    18  ethernet.o(.text)
    ethCheckDestAddr                         0x080045ff   Thumb Code   110  ethernet.o(.text)
    ethCalcCrc                               0x0800466d   Thumb Code    56  ethernet.o(.text)
    ethDumpHeader                            0x080046a5   Thumb Code     2  ethernet.o(.text)
    ethProcessFrame                          0x080046a7   Thumb Code   192  ethernet.o(.text)
    ethCalcCrcEx                             0x08004767   Thumb Code   154  ethernet.o(.text)
    ethSendFrame                             0x08004801   Thumb Code   186  ethernet.o(.text)
    ethAcceptMulticastAddr                   0x080048bb   Thumb Code   102  ethernet.o(.text)
    ethDropMulticastAddr                     0x08004921   Thumb Code    92  ethernet.o(.text)
    ethAllocBuffer                           0x0800497d   Thumb Code    30  ethernet.o(.text)
    macStringToAddr                          0x0800499b   Thumb Code   208  ethernet.o(.text)
    macAddrToString                          0x08004a6b   Thumb Code    44  ethernet.o(.text)
    eui64StringToAddr                        0x08004a97   Thumb Code   186  ethernet.o(.text)
    eui64AddrToString                        0x08004b51   Thumb Code    54  ethernet.o(.text)
    macAddrToEui64                           0x08004b87   Thumb Code    42  ethernet.o(.text)
    arpInit                                  0x08004c01   Thumb Code    20  arp.o(.text)
    arpFlushQueuedPackets                    0x08004c15   Thumb Code    42  arp.o(.text)
    arpFlushCache                            0x08004c3f   Thumb Code    40  arp.o(.text)
    arpCreateEntry                           0x08004c67   Thumb Code    80  arp.o(.text)
    arpFindEntry                             0x08004cb7   Thumb Code    46  arp.o(.text)
    arpSendQueuedPackets                     0x08004ce5   Thumb Code    64  arp.o(.text)
    arpDumpPacket                            0x08004d25   Thumb Code     2  arp.o(.text)
    arpSendRequest                           0x08004d27   Thumb Code   164  arp.o(.text)
    arpResolve                               0x08004dcb   Thumb Code   138  arp.o(.text)
    arpEnqueuePacket                         0x08004e55   Thumb Code   172  arp.o(.text)
    arpTick                                  0x08004f01   Thumb Code   224  arp.o(.text)
    arpProcessReply                          0x08004fe1   Thumb Code   228  arp.o(.text)
    arpSendReply                             0x080050c5   Thumb Code   148  arp.o(.text)
    arpProcessRequest                        0x08005159   Thumb Code   114  arp.o(.text)
    arpProcessPacket                         0x080051cb   Thumb Code   196  arp.o(.text)
    arpSendProbe                             0x0800528f   Thumb Code   138  arp.o(.text)
    ipv4Init                                 0x0800531d   Thumb Code    58  ipv4.o(.text)
    ipv4SetHostAddr                          0x08005357   Thumb Code    72  ipv4.o(.text)
    ipv4GetHostAddr                          0x0800539f   Thumb Code    54  ipv4.o(.text)
    ipv4SetSubnetMask                        0x080053d5   Thumb Code    34  ipv4.o(.text)
    ipv4GetSubnetMask                        0x080053f7   Thumb Code    38  ipv4.o(.text)
    ipv4SetDefaultGateway                    0x0800541d   Thumb Code    46  ipv4.o(.text)
    ipv4GetDefaultGateway                    0x0800544b   Thumb Code    38  ipv4.o(.text)
    ipv4SetDnsServer                         0x08005471   Thumb Code    58  ipv4.o(.text)
    ipv4GetDnsServer                         0x080054ab   Thumb Code    54  ipv4.o(.text)
    ipv4GetBroadcastAddr                     0x080054e1   Thumb Code    36  ipv4.o(.text)
    ipv4LinkChangeEvent                      0x08005505   Thumb Code    42  ipv4.o(.text)
    ipv4DumpHeader                           0x0800552f   Thumb Code     2  ipv4.o(.text)
    ipv4ProcessDatagram                      0x08005531   Thumb Code   230  ipv4.o(.text)
    ipv4IsBroadcastAddr                      0x08005617   Thumb Code    66  ipv4.o(.text)
    ipv4CheckDestAddr                        0x08005659   Thumb Code   104  ipv4.o(.text)
    ipv4CheckSourceAddr                      0x080056c1   Thumb Code    32  ipv4.o(.text)
    ipv4ProcessPacket                        0x080056e1   Thumb Code   204  ipv4.o(.text)
    ipv4MapMulticastAddrToMac                0x080057ad   Thumb Code    50  ipv4.o(.text)
    ipv4SendPacket                           0x080057df   Thumb Code   430  ipv4.o(.text)
    ipv4SendDatagram                         0x0800598d   Thumb Code   104  ipv4.o(.text)
    ipv4GetAddrScope                         0x080059f5   Thumb Code    62  ipv4.o(.text)
    ipv4SelectSourceAddr                     0x08005a33   Thumb Code   286  ipv4.o(.text)
    ipv4JoinMulticastGroup                   0x08005b51   Thumb Code   122  ipv4.o(.text)
    ipv4LeaveMulticastGroup                  0x08005bcb   Thumb Code   102  ipv4.o(.text)
    ipv4StringToAddr                         0x08005c31   Thumb Code   140  ipv4.o(.text)
    ipv4AddrToString                         0x08005cbd   Thumb Code    38  ipv4.o(.text)
    ipv4FragmentDatagram                     0x08005cf5   Thumb Code   206  ipv4_frag.o(.text)
    ipv4FindHole                             0x08005dc3   Thumb Code    20  ipv4_frag.o(.text)
    ipv4DumpHoleList                         0x08005dd7   Thumb Code     2  ipv4_frag.o(.text)
    ipv4SearchFragQueue                      0x08005dd9   Thumb Code   242  ipv4_frag.o(.text)
    ipv4ReassembleDatagram                   0x08005ecb   Thumb Code   520  ipv4_frag.o(.text)
    ipv4FragTick                             0x080060d3   Thumb Code   130  ipv4_frag.o(.text)
    ipv4FlushFragQueue                       0x08006155   Thumb Code    38  ipv4_frag.o(.text)
    icmpDumpEchoMessage                      0x0800617b   Thumb Code     2  icmp.o(.text)
    icmpProcessEchoRequest                   0x0800617d   Thumb Code   210  icmp.o(.text)
    icmpDumpMessage                          0x0800624f   Thumb Code     2  icmp.o(.text)
    icmpProcessMessage                       0x08006251   Thumb Code    90  icmp.o(.text)
    icmpDumpErrorMessage                     0x080062ab   Thumb Code     2  icmp.o(.text)
    icmpSendErrorMessage                     0x080062ad   Thumb Code   278  icmp.o(.text)
    igmpInit                                 0x080063c5   Thumb Code    26  igmp.o(.text)
    igmpDumpMessage                          0x080063df   Thumb Code     2  igmp.o(.text)
    igmpSendReportMessage                    0x080063e1   Thumb Code   178  igmp.o(.text)
    igmpJoinGroup                            0x08006493   Thumb Code    70  igmp.o(.text)
    igmpSendLeaveGroupMessage                0x080064d9   Thumb Code   178  igmp.o(.text)
    igmpLeaveGroup                           0x0800658b   Thumb Code    28  igmp.o(.text)
    igmpTick                                 0x080065a7   Thumb Code    84  igmp.o(.text)
    igmpLinkChangeEvent                      0x080065fb   Thumb Code   128  igmp.o(.text)
    igmpProcessReportMessage                 0x0800667b   Thumb Code    58  igmp.o(.text)
    igmpRand                                 0x080066b5   Thumb Code    20  igmp.o(.text)
    igmpProcessQueryMessage                  0x080066c9   Thumb Code   158  igmp.o(.text)
    igmpProcessMessage                       0x08006767   Thumb Code   314  igmp.o(.text)
    ipv6Init                                 0x080068e5   Thumb Code   110  ipv6.o(.text)
    ipv6SetMtu                               0x08006953   Thumb Code    52  ipv6.o(.text)
    ipv6GetMtu                               0x08006987   Thumb Code    36  ipv6.o(.text)
    ipv6SetLinkLocalAddr                     0x080069ab   Thumb Code    80  ipv6.o(.text)
    ipv6GetLinkLocalAddr                     0x080069fb   Thumb Code    68  ipv6.o(.text)
    ipv6SetGlobalAddr                        0x08006a3f   Thumb Code    82  ipv6.o(.text)
    ipv6GetGlobalAddr                        0x08006a91   Thumb Code   104  ipv6.o(.text)
    ipv6JoinMulticastGroup                   0x08006af9   Thumb Code   130  ipv6.o(.text)
    ipv6LeaveMulticastGroup                  0x08006b7b   Thumb Code   108  ipv6.o(.text)
    ipv6SetAnycastAddr                       0x08006be7   Thumb Code   148  ipv6.o(.text)
    ipv6GetAnycastAddr                       0x08006c7b   Thumb Code    64  ipv6.o(.text)
    ipv6SetPrefix                            0x08006cbb   Thumb Code   106  ipv6.o(.text)
    ipv6GetPrefix                            0x08006d25   Thumb Code   120  ipv6.o(.text)
    ipv6SetDefaultRouter                     0x08006d9d   Thumb Code   106  ipv6.o(.text)
    ipv6GetDefaultRouter                     0x08006e07   Thumb Code    92  ipv6.o(.text)
    ipv6SetDnsServer                         0x08006e63   Thumb Code    66  ipv6.o(.text)
    ipv6GetDnsServer                         0x08006ea5   Thumb Code    66  ipv6.o(.text)
    ipv6LinkChangeEvent                      0x08006ee7   Thumb Code   144  ipv6.o(.text)
    ipv6ParseEspHeader                       0x08006f77   Thumb Code    10  ipv6.o(.text)
    ipv6ParseAuthHeader                      0x08006f81   Thumb Code    10  ipv6.o(.text)
    ipv6ParseRoutingHeader                   0x08006f8b   Thumb Code   130  ipv6.o(.text)
    ipv6ParseOptions                         0x0800700d   Thumb Code   218  ipv6.o(.text)
    ipv6ParseDestOptHeader                   0x080070e7   Thumb Code   128  ipv6.o(.text)
    ipv6ParseHopByHopOptHeader               0x08007167   Thumb Code   164  ipv6.o(.text)
    ipv6DumpHeader                           0x0800720b   Thumb Code     2  ipv6.o(.text)
    ipv6ProcessPacket                        0x0800720d   Thumb Code   544  ipv6.o(.text)
    ipv6SendPacket                           0x0800742d   Thumb Code   530  ipv6.o(.text)
    ipv6SendDatagram                         0x0800763f   Thumb Code   116  ipv6.o(.text)
    ipv6StringToAddr                         0x080076b3   Thumb Code   386  ipv6.o(.text)
    ipv6AddrToString                         0x08007835   Thumb Code   154  ipv6.o(.text)
    ipv6FragmentDatagram                     0x080078e5   Thumb Code   234  ipv6_frag.o(.text)
    ipv6FindHole                             0x080079cf   Thumb Code    20  ipv6_frag.o(.text)
    ipv6DumpHoleList                         0x080079e3   Thumb Code     2  ipv6_frag.o(.text)
    ipv6SearchFragQueue                      0x080079e5   Thumb Code   256  ipv6_frag.o(.text)
    ipv6ParseFragmentHeader                  0x08007ae5   Thumb Code   706  ipv6_frag.o(.text)
    ipv6FragTick                             0x08007da7   Thumb Code   134  ipv6_frag.o(.text)
    ipv6FlushFragQueue                       0x08007e2d   Thumb Code    42  ipv6_frag.o(.text)
    ipv6GetAddrState                         0x08007e59   Thumb Code    56  ipv6_misc.o(.text)
    ipv6ComputeSolicitedNodeAddr             0x08007e91   Thumb Code    42  ipv6_misc.o(.text)
    ipv6SetAddr                              0x08007ebb   Thumb Code   208  ipv6_misc.o(.text)
    ipv6AddAddr                              0x08007f8b   Thumb Code   224  ipv6_misc.o(.text)
    ipv6RemoveAddr                           0x0800806b   Thumb Code    70  ipv6_misc.o(.text)
    ipv6CompPrefix                           0x080080b1   Thumb Code    84  ipv6_misc.o(.text)
    ipv6AddPrefix                            0x08008105   Thumb Code   186  ipv6_misc.o(.text)
    ipv6RemovePrefix                         0x080081bf   Thumb Code    78  ipv6_misc.o(.text)
    ipv6AddDefaultRouter                     0x0800820d   Thumb Code   108  ipv6_misc.o(.text)
    ipv6RemoveDefaultRouter                  0x08008279   Thumb Code   100  ipv6_misc.o(.text)
    ipv6FlushAddrList                        0x080082dd   Thumb Code    56  ipv6_misc.o(.text)
    ipv6FlushPrefixList                      0x08008315   Thumb Code    52  ipv6_misc.o(.text)
    ipv6FlushDefaultRouterList               0x08008349   Thumb Code    50  ipv6_misc.o(.text)
    ipv6FlushDnsServerList                   0x0800837b   Thumb Code    16  ipv6_misc.o(.text)
    ipv6CheckSourceAddr                      0x0800838b   Thumb Code    16  ipv6_misc.o(.text)
    ipv6CheckDestAddr                        0x0800839b   Thumb Code   164  ipv6_misc.o(.text)
    ipv6GetCommonPrefixLength                0x0800843f   Thumb Code    76  ipv6_misc.o(.text)
    ipv6GetMulticastAddrScope                0x0800848b   Thumb Code    16  ipv6_misc.o(.text)
    ipv6GetAddrScope                         0x0800849b   Thumb Code    82  ipv6_misc.o(.text)
    ipv6SelectSourceAddr                     0x080084ed   Thumb Code   314  ipv6_misc.o(.text)
    ipv6IsOnLink                             0x08008627   Thumb Code    76  ipv6_misc.o(.text)
    ipv6IsTentativeAddr                      0x08008673   Thumb Code    72  ipv6_misc.o(.text)
    ipv6IsAnycastAddr                        0x080086bb   Thumb Code    60  ipv6_misc.o(.text)
    ipv6MapMulticastAddrToMac                0x080086f7   Thumb Code    38  ipv6_misc.o(.text)
    ipv6GenerateLinkLocalAddr                0x0800871d   Thumb Code    32  ipv6_misc.o(.text)
    ipv6GetPathMtu                           0x08008741   Thumb Code    34  ipv6_pmtu.o(.text)
    ipv6UpdatePathMtu                        0x08008763   Thumb Code    34  ipv6_pmtu.o(.text)
    icmpv6EnableMulticastEchoRequest         0x08008785   Thumb Code    34  icmpv6.o(.text)
    icmpv6DumpEchoMessage                    0x080087a7   Thumb Code     2  icmpv6.o(.text)
    icmpv6ProcessEchoRequest                 0x080087a9   Thumb Code   260  icmpv6.o(.text)
    icmpv6DumpPacketTooBigMessage            0x080088ad   Thumb Code     2  icmpv6.o(.text)
    icmpv6ProcessPacketTooBig                0x080088af   Thumb Code    96  icmpv6.o(.text)
    icmpv6DumpDestUnreachableMessage         0x0800890f   Thumb Code     2  icmpv6.o(.text)
    icmpv6ProcessDestUnreachable             0x08008911   Thumb Code    52  icmpv6.o(.text)
    icmpv6DumpMessage                        0x08008945   Thumb Code     2  icmpv6.o(.text)
    icmpv6ProcessMessage                     0x08008947   Thumb Code   290  icmpv6.o(.text)
    icmpv6DumpErrorMessage                   0x08008a69   Thumb Code     2  icmpv6.o(.text)
    icmpv6SendErrorMessage                   0x08008a6b   Thumb Code   352  icmpv6.o(.text)
    mldInit                                  0x08008bcd   Thumb Code     6  mld.o(.text)
    mldDumpMessage                           0x08008bd3   Thumb Code     2  mld.o(.text)
    mldSendListenerReport                    0x08008bd5   Thumb Code   212  mld.o(.text)
    mldStartListening                        0x08008ca9   Thumb Code    74  mld.o(.text)
    mldSendListenerDone                      0x08008cf3   Thumb Code   212  mld.o(.text)
    mldStopListening                         0x08008dc7   Thumb Code    28  mld.o(.text)
    mldTick                                  0x08008de3   Thumb Code    66  mld.o(.text)
    mldLinkChangeEvent                       0x08008e25   Thumb Code   110  mld.o(.text)
    mldRand                                  0x08008e93   Thumb Code    20  mld.o(.text)
    mldProcessListenerQuery                  0x08008ea7   Thumb Code   238  mld.o(.text)
    mldProcessListenerReport                 0x08008f95   Thumb Code   244  mld.o(.text)
    ndpInit                                  0x08009089   Thumb Code    56  ndp.o(.text)
    ndpDumpNeighborSolMessage                0x080090c1   Thumb Code     2  ndp.o(.text)
    ndpSendNeighborSol                       0x080090c3   Thumb Code   272  ndp.o(.text)
    ndpResolve                               0x080091d3   Thumb Code   156  ndp.o(.text)
    ndpEnqueuePacket                         0x0800926f   Thumb Code   214  ndp.o(.text)
    ndpDumpRouterSolMessage                  0x08009345   Thumb Code     2  ndp.o(.text)
    ndpSendRouterSol                         0x08009347   Thumb Code   234  ndp.o(.text)
    ndpTick                                  0x08009431   Thumb Code   132  ndp.o(.text)
    ndpLinkChangeEvent                       0x080094b5   Thumb Code   188  ndp.o(.text)
    ndpDumpRouterAdvMessage                  0x08009571   Thumb Code     2  ndp.o(.text)
    ndpProcessRouterAdv                      0x08009573   Thumb Code   574  ndp.o(.text)
    ndpDumpNeighborAdvMessage                0x080097b1   Thumb Code     2  ndp.o(.text)
    ndpSendNeighborAdv                       0x080097b3   Thumb Code   366  ndp.o(.text)
    ndpProcessNeighborSol                    0x08009921   Thumb Code   676  ndp.o(.text)
    ndpProcessNeighborAdv                    0x08009bc5   Thumb Code   962  ndp.o(.text)
    ndpDumpRedirectMessage                   0x08009f87   Thumb Code     2  ndp.o(.text)
    ndpProcessRedirect                       0x08009f89   Thumb Code   484  ndp.o(.text)
    ndpSendRedirect                          0x0800a16d   Thumb Code   436  ndp.o(.text)
    ndpFlushQueuedPackets                    0x0800a37d   Thumb Code    82  ndp_cache.o(.text)
    ndpCreateNeighborCacheEntry              0x0800a3cf   Thumb Code    80  ndp_cache.o(.text)
    ndpFindNeighborCacheEntry                0x0800a41f   Thumb Code    56  ndp_cache.o(.text)
    ndpUpdateNeighborCache                   0x0800a457   Thumb Code   260  ndp_cache.o(.text)
    ndpFlushNeighborCache                    0x0800a55b   Thumb Code    40  ndp_cache.o(.text)
    ndpSendQueuedPackets                     0x0800a583   Thumb Code    78  ndp_cache.o(.text)
    ndpCreateDestCacheEntry                  0x0800a5d1   Thumb Code    80  ndp_cache.o(.text)
    ndpFindDestCacheEntry                    0x0800a621   Thumb Code    52  ndp_cache.o(.text)
    ndpFlushDestCache                        0x0800a655   Thumb Code    18  ndp_cache.o(.text)
    ndpParsePrefixInfoOption                 0x0800a66d   Thumb Code   118  ndp_misc.o(.text)
    ndpUpdateAddrList                        0x0800a6e3   Thumb Code   290  ndp_misc.o(.text)
    ndpUpdatePrefixList                      0x0800a805   Thumb Code    68  ndp_misc.o(.text)
    ndpUpdateDefaultRouterList               0x0800a849   Thumb Code    86  ndp_misc.o(.text)
    ndpSelectDefaultRouter                   0x0800a89f   Thumb Code   188  ndp_misc.o(.text)
    ndpIsFirstHopRouter                      0x0800a95b   Thumb Code   102  ndp_misc.o(.text)
    ndpSelectNextHop                         0x0800a9c1   Thumb Code    74  ndp_misc.o(.text)
    ndpUpdateNextHop                         0x0800aa0b   Thumb Code    76  ndp_misc.o(.text)
    ndpAddOption                             0x0800aa57   Thumb Code    98  ndp_misc.o(.text)
    ndpGetOption                             0x0800aab9   Thumb Code    64  ndp_misc.o(.text)
    ndpCheckOptions                          0x0800aaf9   Thumb Code    36  ndp_misc.o(.text)
    slaacGetDefaultSettings                  0x0800ab1d   Thumb Code    20  slaac.o(.text)
    slaacInit                                0x0800ab31   Thumb Code    68  slaac.o(.text)
    slaacGenerateLinkLocalAddr               0x0800ab75   Thumb Code    96  slaac.o(.text)
    slaacStart                               0x0800abd5   Thumb Code    74  slaac.o(.text)
    slaacStop                                0x0800ac1f   Thumb Code    46  slaac.o(.text)
    slaacLinkChangeEvent                     0x0800ac4d   Thumb Code    64  slaac.o(.text)
    slaacDumpConfig                          0x0800ac8d   Thumb Code   324  slaac.o(.text)
    slaacParsePrefixInfoOption               0x0800add1   Thumb Code   734  slaac.o(.text)
    slaacParseRouterAdv                      0x0800b0af   Thumb Code   196  slaac.o(.text)
    ipSendDatagram                           0x0800b179   Thumb Code    70  ip.o(.text)
    ipSelectSourceAddr                       0x0800b1bf   Thumb Code    52  ip.o(.text)
    ipCalcChecksum                           0x0800b1f3   Thumb Code    50  ip.o(.text)
    ipCalcChecksumEx                         0x0800b225   Thumb Code   310  ip.o(.text)
    ipCalcUpperLayerChecksum                 0x0800b35b   Thumb Code    66  ip.o(.text)
    ipCalcUpperLayerChecksumEx               0x0800b39d   Thumb Code    74  ip.o(.text)
    ipAllocBuffer                            0x0800b3e7   Thumb Code    34  ip.o(.text)
    ipJoinMulticastGroup                     0x0800b409   Thumb Code    68  ip.o(.text)
    ipLeaveMulticastGroup                    0x0800b44d   Thumb Code    50  ip.o(.text)
    ipIsUnspecifiedAddr                      0x0800b47f   Thumb Code    52  ip.o(.text)
    ipStringToAddr                           0x0800b4b3   Thumb Code    58  ip.o(.text)
    ipAddrToString                           0x0800b4ed   Thumb Code    50  ip.o(.text)
    tcpInit                                  0x0800b52d   Thumb Code     8  tcp.o(.text)
    tcpGetDynamicPort                        0x0800b535   Thumb Code    58  tcp.o(.text)
    tcpConnect                               0x0800b56f   Thumb Code   234  tcp.o(.text)
    tcpListen                                0x0800b659   Thumb Code    60  tcp.o(.text)
    tcpAbort                                 0x0800b695   Thumb Code   104  tcp.o(.text)
    tcpGetState                              0x0800b6fd   Thumb Code    24  tcp.o(.text)
    tcpAccept                                0x0800b715   Thumb Code   450  tcp.o(.text)
    tcpSend                                  0x0800b8d7   Thumb Code   296  tcp.o(.text)
    tcpReceive                               0x0800b9ff   Thumb Code   382  tcp.o(.text)
    tcpShutdown                              0x0800bb7d   Thumb Code   380  tcp.o(.text)
    tcpKillOldestConnection                  0x0800bcf9   Thumb Code    82  tcp.o(.text)
    tcpStateTimeWait                         0x0800bd51   Thumb Code   122  tcp_fsm.o(.text)
    tcpStateClosing                          0x0800bdcb   Thumb Code   106  tcp_fsm.o(.text)
    tcpStateFinWait2                         0x0800be35   Thumb Code   170  tcp_fsm.o(.text)
    tcpStateFinWait1                         0x0800bedf   Thumb Code   216  tcp_fsm.o(.text)
    tcpStateLastAck                          0x0800bfb7   Thumb Code    84  tcp_fsm.o(.text)
    tcpStateCloseWait                        0x0800c00b   Thumb Code    96  tcp_fsm.o(.text)
    tcpStateEstablished                      0x0800c06b   Thumb Code   174  tcp_fsm.o(.text)
    tcpStateSynReceived                      0x0800c119   Thumb Code   148  tcp_fsm.o(.text)
    tcpStateSynSent                          0x0800c1ad   Thumb Code   332  tcp_fsm.o(.text)
    tcpStateListen                           0x0800c2f9   Thumb Code   300  tcp_fsm.o(.text)
    tcpStateClosed                           0x0800c425   Thumb Code    36  tcp_fsm.o(.text)
    tcpProcessSegment                        0x0800c449   Thumb Code   664  tcp_fsm.o(.text)
    tcpDumpHeader                            0x0800c6e5   Thumb Code     2  tcp_misc.o(.text)
    tcpReadTxBuffer                          0x0800c6e7   Thumb Code   110  tcp_misc.o(.text)
    tcpAddOption                             0x0800c755   Thumb Code   150  tcp_misc.o(.text)
    tcpSendSegment                           0x0800c7eb   Thumb Code   572  tcp_misc.o(.text)
    tcpSendResetSegment                      0x0800ca27   Thumb Code   356  tcp_misc.o(.text)
    tcpGetOption                             0x0800cb8b   Thumb Code    98  tcp_misc.o(.text)
    tcpCheckSequenceNumber                   0x0800cbed   Thumb Code   186  tcp_misc.o(.text)
    tcpCheckSyn                              0x0800cca7   Thumb Code    74  tcp_misc.o(.text)
    tcpUpdateEvents                          0x0800ccf1   Thumb Code   408  tcp_misc.o(.text)
    tcpRetransmitSegment                     0x0800ce89   Thumb Code   164  tcp_misc.o(.text)
    tcpFastRetransmit                        0x0800cf2d   Thumb Code    74  tcp_misc.o(.text)
    tcpFastLossRecovery                      0x0800cf77   Thumb Code    40  tcp_misc.o(.text)
    tcpFastRecovery                          0x0800cf9f   Thumb Code    88  tcp_misc.o(.text)
    tcpUpdateRetransmitQueue                 0x0800cff7   Thumb Code   144  tcp_misc.o(.text)
    tcpComputeRto                            0x0800d087   Thumb Code   192  tcp_misc.o(.text)
    tcpUpdateSendWindow                      0x0800d147   Thumb Code   172  tcp_misc.o(.text)
    tcpIsDuplicateAck                        0x0800d1f3   Thumb Code    44  tcp_misc.o(.text)
    tcpCheckAck                              0x0800d21f   Thumb Code   478  tcp_misc.o(.text)
    tcpUpdateSackBlocks                      0x0800d3fd   Thumb Code   220  tcp_misc.o(.text)
    tcpWriteRxBuffer                         0x0800d4d9   Thumb Code   116  tcp_misc.o(.text)
    tcpProcessSegmentData                    0x0800d54d   Thumb Code   198  tcp_misc.o(.text)
    tcpFlushSynQueue                         0x0800d613   Thumb Code    34  tcp_misc.o(.text)
    tcpFlushRetransmitQueue                  0x0800d635   Thumb Code    42  tcp_misc.o(.text)
    tcpDeleteControlBlock                    0x0800d65f   Thumb Code    38  tcp_misc.o(.text)
    tcpUpdateReceiveWindow                   0x0800d685   Thumb Code   132  tcp_misc.o(.text)
    tcpNagleAlgo                             0x0800d709   Thumb Code   406  tcp_misc.o(.text)
    tcpChangeState                           0x0800d89f   Thumb Code    46  tcp_misc.o(.text)
    tcpWaitForEvents                         0x0800d8cd   Thumb Code    60  tcp_misc.o(.text)
    tcpWriteTxBuffer                         0x0800d909   Thumb Code   104  tcp_misc.o(.text)
    tcpReadRxBuffer                          0x0800d971   Thumb Code   106  tcp_misc.o(.text)
    tcpTimerElapsed                          0x0800d9e1   Thumb Code    36  tcp_timer.o(.text)
    tcpTimerStart                            0x0800da05   Thumb Code    20  tcp_timer.o(.text)
    tcpTimerStop                             0x0800da19   Thumb Code     6  tcp_timer.o(.text)
    tcpTick                                  0x0800da1f   Thumb Code   642  tcp_timer.o(.text)
    tcpTimerRunning                          0x0800dca1   Thumb Code     6  tcp_timer.o(.text)
    tcpTimerGetInterval                      0x0800dca7   Thumb Code     6  tcp_timer.o(.text)
    udpInit                                  0x0800dcb1   Thumb Code    32  udp.o(.text)
    udpGetDynamicPort                        0x0800dcd1   Thumb Code    58  udp.o(.text)
    udpUpdateEvents                          0x0800dd0b   Thumb Code    82  udp.o(.text)
    udpInvokeRxCallback                      0x0800dd5d   Thumb Code   122  udp.o(.text)
    udpDumpHeader                            0x0800ddd7   Thumb Code     2  udp.o(.text)
    udpProcessDatagram                       0x0800ddd9   Thumb Code   550  udp.o(.text)
    udpSendDatagramEx                        0x0800dfff   Thumb Code   304  udp.o(.text)
    udpAllocBuffer                           0x0800e12f   Thumb Code    34  udp.o(.text)
    udpSendDatagram                          0x0800e151   Thumb Code    98  udp.o(.text)
    udpReceiveDatagram                       0x0800e1b3   Thumb Code   168  udp.o(.text)
    udpAttachRxCallback                      0x0800e25b   Thumb Code    74  udp.o(.text)
    udpDetachRxCallback                      0x0800e2a5   Thumb Code    68  udp.o(.text)
    socketInit                               0x0800e2f5   Thumb Code    88  socket.o(.text)
    socketOpen                               0x0800e34d   Thumb Code   164  socket.o(.text)
    socketSetTimeout                         0x0800e3f1   Thumb Code    30  socket.o(.text)
    socketSetTxBufferSize                    0x0800e40f   Thumb Code    54  socket.o(.text)
    socketSetRxBufferSize                    0x0800e445   Thumb Code    54  socket.o(.text)
    socketBindToInterface                    0x0800e47b   Thumb Code    14  socket.o(.text)
    socketBind                               0x0800e489   Thumb Code    50  socket.o(.text)
    socketConnect                            0x0800e4bb   Thumb Code   152  socket.o(.text)
    socketListen                             0x0800e553   Thumb Code    48  socket.o(.text)
    socketAccept                             0x0800e583   Thumb Code    44  socket.o(.text)
    socketSendTo                             0x0800e5af   Thumb Code   104  socket.o(.text)
    socketSend                               0x0800e617   Thumb Code    38  socket.o(.text)
    socketReceiveEx                          0x0800e63d   Thumb Code   150  socket.o(.text)
    socketReceive                            0x0800e6d3   Thumb Code    48  socket.o(.text)
    socketReceiveFrom                        0x0800e703   Thumb Code    42  socket.o(.text)
    socketGetLocalAddr                       0x0800e72d   Thumb Code    38  socket.o(.text)
    socketGetRemoteAddr                      0x0800e753   Thumb Code    38  socket.o(.text)
    socketShutdown                           0x0800e779   Thumb Code    62  socket.o(.text)
    socketClose                              0x0800e7b7   Thumb Code    82  socket.o(.text)
    socketUnregisterEvents                   0x0800e809   Thumb Code    30  socket.o(.text)
    socketGetEvents                          0x0800e827   Thumb Code    36  socket.o(.text)
    socketRegisterEvents                     0x0800e84b   Thumb Code    70  socket.o(.text)
    socketPoll                               0x0800e891   Thumb Code   220  socket.o(.text)
    getHostByName                            0x0800e96d   Thumb Code   218  socket.o(.text)
    dnsInit                                  0x0800ea55   Thumb Code    16  dns_cache.o(.text)
    dnsDeleteEntry                           0x0800ea65   Thumb Code    32  dns_cache.o(.text)
    dnsFlushCache                            0x0800ea85   Thumb Code    46  dns_cache.o(.text)
    dnsCreateEntry                           0x0800eab3   Thumb Code    72  dns_cache.o(.text)
    dnsFindEntry                             0x0800eafb   Thumb Code   100  dns_cache.o(.text)
    dnsTick                                  0x0800eb5f   Thumb Code   212  dns_cache.o(.text)
    dnsSendQuery                             0x0800ec39   Thumb Code   366  dns_client.o(.text)
    dnsProcessResponse                       0x0800eda7   Thumb Code   578  dns_client.o(.text)
    dnsResolve                               0x0800efe9   Thumb Code   498  dns_client.o(.text)
    dnsEncodeName                            0x0800f225   Thumb Code    92  dns_common.o(.text)
    dnsParseName                             0x0800f281   Thumb Code   184  dns_common.o(.text)
    dnsCompareName                           0x0800f339   Thumb Code   184  dns_common.o(.text)
    dnsCompareEncodedName                    0x0800f3f1   Thumb Code   294  dns_common.o(.text)
    nbnsSendQuery                            0x0800f519   Thumb Code   228  nbns_client.o(.text)
    nbnsResolve                              0x0800f5fd   Thumb Code   236  nbns_client.o(.text)
    nbnsProcessResponse                      0x0800f6e9   Thumb Code   250  nbns_client.o(.text)
    nbnsSendResponse                         0x0800f7ed   Thumb Code   250  nbns_responder.o(.text)
    nbnsProcessQuery                         0x0800f8e7   Thumb Code   140  nbns_responder.o(.text)
    nbnsProcessMessage                       0x0800f975   Thumb Code   124  nbns_common.o(.text)
    nbnsInit                                 0x0800f9f1   Thumb Code    30  nbns_common.o(.text)
    nbnsEncodeName                           0x0800fa0f   Thumb Code   120  nbns_common.o(.text)
    nbnsParseName                            0x0800fa87   Thumb Code   190  nbns_common.o(.text)
    nbnsCompareName                          0x0800fb45   Thumb Code   216  nbns_common.o(.text)
    dhcpClientGetDefaultSettings             0x0800fc1d   Thumb Code    32  dhcp_client.o(.text)
    dhcpClientChangeState                    0x0800fc3d   Thumb Code   102  dhcp_client.o(.text)
    dhcpClientParseNak                       0x0800fca3   Thumb Code   150  dhcp_client.o(.text)
    dhcpClientParseAck                       0x0800fd39   Thumb Code   614  dhcp_client.o(.text)
    dhcpClientParseOffer                     0x0800ff9f   Thumb Code   154  dhcp_client.o(.text)
    dhcpClientProcessMessage                 0x08010039   Thumb Code   172  dhcp_client.o(.text)
    dhcpClientInit                           0x080100e5   Thumb Code   148  dhcp_client.o(.text)
    dhcpClientStart                          0x08010179   Thumb Code    52  dhcp_client.o(.text)
    dhcpClientStop                           0x080101ad   Thumb Code    50  dhcp_client.o(.text)
    dhcpClientGetState                       0x080101df   Thumb Code    24  dhcp_client.o(.text)
    dhcpClientComputeElapsedTime             0x080101f7   Thumb Code    46  dhcp_client.o(.text)
    dhcpClientSendRequest                    0x08010225   Thumb Code   306  dhcp_client.o(.text)
    dhcpClientStateRebinding                 0x08010357   Thumb Code   136  dhcp_client.o(.text)
    dhcpClientStateRenewing                  0x080103df   Thumb Code   112  dhcp_client.o(.text)
    dhcpClientStateBound                     0x0801044f   Thumb Code   176  dhcp_client.o(.text)
    dhcpDumpConfig                           0x080104ff   Thumb Code   298  dhcp_client.o(.text)
    dhcpClientSendDecline                    0x08010629   Thumb Code   190  dhcp_client.o(.text)
    dhcpClientStateProbing                   0x080106e7   Thumb Code   108  dhcp_client.o(.text)
    dhcpClientCheckTimeout                   0x08010753   Thumb Code    56  dhcp_client.o(.text)
    dhcpClientStateRebooting                 0x0801078b   Thumb Code   142  dhcp_client.o(.text)
    dhcpClientStateInitReboot                0x08010819   Thumb Code    48  dhcp_client.o(.text)
    dhcpClientStateRequesting                0x08010849   Thumb Code   142  dhcp_client.o(.text)
    dhcpClientSendDiscover                   0x080108d7   Thumb Code   456  dhcp_client.o(.text)
    dhcpClientStateSelecting                 0x08010a9f   Thumb Code   102  dhcp_client.o(.text)
    dhcpClientStateInit                      0x08010b05   Thumb Code    48  dhcp_client.o(.text)
    dhcpClientTick                           0x08010b35   Thumb Code   116  dhcp_client.o(.text)
    dhcpClientLinkChangeEvent                0x08010ba9   Thumb Code    84  dhcp_client.o(.text)
    dhcpAddOption                            0x08010c05   Thumb Code    86  dhcp_common.o(.text)
    dhcpGetOption                            0x08010c5b   Thumb Code    88  dhcp_common.o(.text)
    httpServerGetDefaultSettings             0x08010cb5   Thumb Code    50  http_server.o(.text)
    httpServerInit                           0x08010ce7   Thumb Code   220  http_server.o(.text)
    httpListenerTask                         0x08010dc3   Thumb Code   158  http_server.o(.text)
    httpCloseStream                          0x08010e61   Thumb Code    50  http_server.o(.text)
    httpWriteStream                          0x08010e93   Thumb Code   156  http_server.o(.text)
    httpWriteHeader                          0x08010f2f   Thumb Code    50  http_server.o(.text)
    httpSendErrorResponse                    0x08010f61   Thumb Code   142  http_server.o(.text)
    httpSendResponse                         0x08010fef   Thumb Code   120  http_server.o(.text)
    httpConnectionTask                       0x08011067   Thumb Code   796  http_server.o(.text)
    httpServerStart                          0x08011383   Thumb Code   130  http_server.o(.text)
    httpReadStream                           0x08011405   Thumb Code   276  http_server.o(.text)
    httpSendRedirectResponse                 0x08011519   Thumb Code   472  http_server.o(.text)
    httpCheckPassword                        0x080116f5   Thumb Code    56  http_server_auth.o(.text)
    httpParseAuthField                       0x0801172d   Thumb Code   168  http_server_auth.o(.text)
    httpGenerateNonce                        0x080117d5   Thumb Code     6  http_server_auth.o(.text)
    httpVerifyNonce                          0x080117db   Thumb Code     6  http_server_auth.o(.text)
    httpParseContentTypeField                0x080117ed   Thumb Code     2  http_server_misc.o(.text)
    httpReceive                              0x080117ef   Thumb Code    40  http_server_misc.o(.text)
    httpReadHeaderField                      0x08011817   Thumb Code   198  http_server_misc.o(.text)
    httpDecodePercentEncodedString           0x080118dd   Thumb Code   114  http_server_misc.o(.text)
    httpParseRequestLine                     0x0801194f   Thumb Code   270  http_server_misc.o(.text)
    httpReadHeader                           0x08011a5d   Thumb Code   400  http_server_misc.o(.text)
    httpReadChunkSize                        0x08011bed   Thumb Code   366  http_server_misc.o(.text)
    httpFormatHeader                         0x08011d5b   Thumb Code   422  http_server_misc.o(.text)
    httpSend                                 0x08011f01   Thumb Code    34  http_server_misc.o(.text)
    httpGetAbsolutePath                      0x08011f23   Thumb Code    44  http_server_misc.o(.text)
    httpCompExtension                        0x08011f4f   Thumb Code    56  http_server_misc.o(.text)
    httpConvertArrayToHexString              0x08011f87   Thumb Code    52  http_server_misc.o(.text)
    mimeGetType                              0x0801217d   Thumb Code    72  mime.o(.text)
    ssiProcessExecCommand                    0x080121cd   Thumb Code   218  ssi.o(.text)
    ssiProcessEchoCommand                    0x080122a7   Thumb Code   484  ssi.o(.text)
    ssiProcessIncludeCommand                 0x0801248b   Thumb Code   402  ssi.o(.text)
    ssiProcessCommand                        0x0801261d   Thumb Code   384  ssi.o(.text)
    ssiSearchTag                             0x0801279d   Thumb Code    84  ssi.o(.text)
    ssiExecuteScript                         0x080127f1   Thumb Code   284  ssi.o(.text)
    smtpRead                                 0x08012945   Thumb Code    56  smtp_client.o(.text)
    smtpWrite                                0x0801297d   Thumb Code    48  smtp_client.o(.text)
    smtpSendCommand                          0x080129ad   Thumb Code   264  smtp_client.o(.text)
    smtpSendData                             0x08012ab5   Thumb Code   662  smtp_client.o(.text)
    smtpSendAuthPlain                        0x08012d4b   Thumb Code   310  smtp_client.o(.text)
    smtpSendAuthLogin                        0x08012e81   Thumb Code   200  smtp_client.o(.text)
    smtpEhloReplyCallback                    0x08012f49   Thumb Code   138  smtp_client.o(.text)
    smtpSendMail                             0x08012fd3   Thumb Code   994  smtp_client.o(.text)
    smtpSendAuthCramMd5                      0x080133b5   Thumb Code     6  smtp_client.o(.text)
    tlsInit                                  0x080133c5   Thumb Code   186  tls.o(.text)
    tlsSetSocket                             0x0801347f   Thumb Code    20  tls.o(.text)
    tlsSetConnectionEnd                      0x08013493   Thumb Code    24  tls.o(.text)
    tlsSetPrng                               0x080134ab   Thumb Code    24  tls.o(.text)
    tlsSetServerName                         0x080134c3   Thumb Code    72  tls.o(.text)
    tlsSetCache                              0x0801350b   Thumb Code    18  tls.o(.text)
    tlsSetClientAuthMode                     0x0801351d   Thumb Code    16  tls.o(.text)
    tlsSetCipherSuites                       0x0801352d   Thumb Code    24  tls.o(.text)
    tlsSetDhParameters                       0x08013545   Thumb Code    44  tls.o(.text)
    tlsSetTrustedCaList                      0x08013571   Thumb Code    28  tls.o(.text)
    tlsAddCertificate                        0x0801358d   Thumb Code   244  tls.o(.text)
    tlsConnect                               0x08013681   Thumb Code    70  tls.o(.text)
    tlsWrite                                 0x080136c7   Thumb Code   132  tls.o(.text)
    tlsRead                                  0x0801374b   Thumb Code   380  tls.o(.text)
    tlsShutdown                              0x080138c7   Thumb Code    40  tls.o(.text)
    tlsFree                                  0x080138ef   Thumb Code   208  tls.o(.text)
    tlsSaveSession                           0x080139bf   Thumb Code    88  tls.o(.text)
    tlsRestoreSession                        0x08013a17   Thumb Code    64  tls.o(.text)
    tlsGetNumSupportedCipherSuites           0x08013a59   Thumb Code     4  tls_cipher_suites.o(.text)
    tlsGetCipherSuiteName                    0x08013a5d   Thumb Code    42  tls_cipher_suites.o(.text)
    tlsIsCipherSuiteSupported                0x08013a87   Thumb Code    34  tls_cipher_suites.o(.text)
    tlsIsEccCipherSuite                      0x08013aa9   Thumb Code    72  tls_cipher_suites.o(.text)
    tlsParseServerHelloDone                  0x08013af9   Thumb Code    72  tls_client.o(.text)
    tlsParseCertificateRequest               0x08013b41   Thumb Code   338  tls_client.o(.text)
    tlsParseServerKeyExchange                0x08013c93   Thumb Code  1344  tls_client.o(.text)
    tlsParseServerHello                      0x080141d3   Thumb Code   556  tls_client.o(.text)
    tlsParseServerMessage                    0x080143ff   Thumb Code   240  tls_client.o(.text)
    tlsSendCertificateVerify                 0x080144ef   Thumb Code  1100  tls_client.o(.text)
    tlsSendClientKeyExchange                 0x0801493b   Thumb Code   542  tls_client.o(.text)
    tlsSendClientHello                       0x08014b59   Thumb Code  1170  tls_client.o(.text)
    tlsClientHandshake                       0x08014feb   Thumb Code   172  tls_client.o(.text)
    tlsParseCertificateVerify                0x080150e5   Thumb Code   602  tls_server.o(.text)
    tlsParseClientKeyExchange                0x0801533f   Thumb Code   718  tls_server.o(.text)
    tlsParseClientHello                      0x0801560d   Thumb Code  1154  tls_server.o(.text)
    tlsParseClientMessage                    0x08015a8f   Thumb Code   216  tls_server.o(.text)
    tlsSendServerHelloDone                   0x08015b67   Thumb Code    86  tls_server.o(.text)
    tlsSendCertificateRequest                0x08015bbd   Thumb Code   648  tls_server.o(.text)
    tlsSendServerKeyExchange                 0x08015e45   Thumb Code  1478  tls_server.o(.text)
    tlsSendServerHello                       0x0801640b   Thumb Code   412  tls_server.o(.text)
    tlsServerHandshake                       0x080165a7   Thumb Code   188  tls_server.o(.text)
    tlsSendAlert                             0x080166e5   Thumb Code   116  tls_common.o(.text)
    tlsSendCertificate                       0x08016759   Thumb Code   326  tls_common.o(.text)
    tlsSendChangeCipherSpec                  0x0801689f   Thumb Code   138  tls_common.o(.text)
    tlsSendFinished                          0x08016929   Thumb Code   154  tls_common.o(.text)
    tlsParseCertificate                      0x080169c3   Thumb Code  1158  tls_common.o(.text)
    tlsParseChangeCipherSpec                 0x08016e49   Thumb Code   148  tls_common.o(.text)
    tlsParseFinished                         0x08016edd   Thumb Code   198  tls_common.o(.text)
    tlsParseAlert                            0x08016fa3   Thumb Code   308  tls_common.o(.text)
    tlsIncSequenceNumber                     0x080170d7   Thumb Code    28  tls_record.o(.text)
    tlsWriteRecord                           0x080170f3   Thumb Code   716  tls_record.o(.text)
    tlsWriteProtocolData                     0x080173bf   Thumb Code   150  tls_record.o(.text)
    tlsReadRecord                            0x08017455   Thumb Code   814  tls_record.o(.text)
    tlsReadProtocolData                      0x08017783   Thumb Code   396  tls_record.o(.text)
    tlsIoWrite                               0x0801790f   Thumb Code    38  tls_io.o(.text)
    tlsIoRead                                0x08017935   Thumb Code    56  tls_io.o(.text)
    tlsProcessError                          0x0801796d   Thumb Code   246  tls_misc.o(.text)
    tlsSetVersion                            0x08017a63   Thumb Code    46  tls_misc.o(.text)
    tlsSetCipherSuite                        0x08017a91   Thumb Code   268  tls_misc.o(.text)
    tlsSetCompressionMethod                  0x08017b9d   Thumb Code    18  tls_misc.o(.text)
    tlsGetHashAlgo                           0x08017baf   Thumb Code    54  tls_misc.o(.text)
    tlsSelectSignHashAlgo                    0x08017be5   Thumb Code   188  tls_misc.o(.text)
    tlsGetCurveInfo                          0x08017ca1   Thumb Code    70  tls_misc.o(.text)
    tlsSelectNamedCurve                      0x08017ce7   Thumb Code    96  tls_misc.o(.text)
    tlsUpdateHandshakeHash                   0x08017d47   Thumb Code    82  tls_misc.o(.text)
    tlsInitHandshakeHash                     0x08017d99   Thumb Code   292  tls_misc.o(.text)
    tlsFinalizeHandshakeHash                 0x08017ebd   Thumb Code   234  tls_misc.o(.text)
    tlsPrf2                                  0x08017fa7   Thumb Code   216  tls_misc.o(.text)
    tlsPrf                                   0x0801807f   Thumb Code   390  tls_misc.o(.text)
    tlsComputeVerifyData                     0x08018205   Thumb Code   412  tls_misc.o(.text)
    tlsWriteMpi                              0x080183a1   Thumb Code    52  tls_misc.o(.text)
    tlsReadMpi                               0x080183d5   Thumb Code    72  tls_misc.o(.text)
    tlsWriteEcPoint                          0x0801841d   Thumb Code    48  tls_misc.o(.text)
    tlsReadEcPoint                           0x0801844d   Thumb Code    70  tls_misc.o(.text)
    tlsGenerateRsaSignature                  0x08018493   Thumb Code   168  tls_misc.o(.text)
    tlsVerifyRsaSignature                    0x0801853b   Thumb Code   226  tls_misc.o(.text)
    tlsGenerateDsaSignature                  0x0801861d   Thumb Code    80  tls_misc.o(.text)
    tlsVerifyDsaSignature                    0x0801866d   Thumb Code    70  tls_misc.o(.text)
    tlsGenerateEcdsaSignature                0x080186b3   Thumb Code    82  tls_misc.o(.text)
    tlsVerifyEcdsaSignature                  0x08018705   Thumb Code    74  tls_misc.o(.text)
    tlsGenerateKeys                          0x0801874f   Thumb Code   536  tls_misc.o(.text)
    tlsIsCertificateAcceptable               0x08018967   Thumb Code   432  tls_misc.o(.text)
    tlsGetNamedCurve                         0x08018b17   Thumb Code   106  tls_misc.o(.text)
    tlsGetCertificateType                    0x08018b81   Thumb Code   564  tls_misc.o(.text)
    tlsGetExtension                          0x08018db5   Thumb Code   108  tls_misc.o(.text)
    tlsGetVersionName                        0x08018e21   Thumb Code    62  tls_misc.o(.text)
    tlsInitCache                             0x08018ea5   Thumb Code    70  tls_cache.o(.text)
    tlsFindCache                             0x08018eeb   Thumb Code   160  tls_cache.o(.text)
    tlsSaveToCache                           0x08018f8b   Thumb Code   190  tls_cache.o(.text)
    tlsRemoveFromCache                       0x08019049   Thumb Code   116  tls_cache.o(.text)
    tlsFreeCache                             0x080190bd   Thumb Code    48  tls_cache.o(.text)
    sslExpandKey                             0x080190f1   Thumb Code   212  ssl_common.o(.text)
    sslComputeMac                            0x080191c5   Thumb Code   178  ssl_common.o(.text)
    base64Encode                             0x08019289   Thumb Code   268  base64.o(.text)
    base64Decode                             0x08019395   Thumb Code   202  base64.o(.text)
    md5ProcessBlock                          0x08019469   Thumb Code  2300  md5.o(.text)
    md5Update                                0x08019d65   Thumb Code    98  md5.o(.text)
    md5Final                                 0x08019dc7   Thumb Code   106  md5.o(.text)
    md5Init                                  0x08019e31   Thumb Code    32  md5.o(.text)
    md5Compute                               0x08019e51   Thumb Code    60  md5.o(.text)
    sha1ProcessBlock                         0x08019e9d   Thumb Code   394  sha1.o(.text)
    sha1Update                               0x0801a027   Thumb Code    98  sha1.o(.text)
    sha1Final                                0x0801a089   Thumb Code   118  sha1.o(.text)
    sha1Init                                 0x0801a0ff   Thumb Code    36  sha1.o(.text)
    sha1Compute                              0x0801a123   Thumb Code    60  sha1.o(.text)
    sha224Final                              0x0801a175   Thumb Code    28  sha224.o(.text)
    sha224Update                             0x0801a191   Thumb Code    20  sha224.o(.text)
    sha224Init                               0x0801a1a5   Thumb Code    44  sha224.o(.text)
    sha224Compute                            0x0801a1d1   Thumb Code    60  sha224.o(.text)
    sha256ProcessBlock                       0x0801a22d   Thumb Code   450  sha256.o(.text)
    sha256Update                             0x0801a3ef   Thumb Code    98  sha256.o(.text)
    sha256Final                              0x0801a451   Thumb Code   118  sha256.o(.text)
    sha256Init                               0x0801a4c7   Thumb Code    44  sha256.o(.text)
    sha256Compute                            0x0801a4f3   Thumb Code    60  sha256.o(.text)
    sha384Final                              0x0801a559   Thumb Code    28  sha384.o(.text)
    sha384Update                             0x0801a575   Thumb Code    20  sha384.o(.text)
    sha384Init                               0x0801a589   Thumb Code    82  sha384.o(.text)
    sha384Compute                            0x0801a5db   Thumb Code    60  sha384.o(.text)
    sha512ProcessBlock                       0x0801a659   Thumb Code   914  sha512.o(.text)
    sha512Update                             0x0801a9eb   Thumb Code   110  sha512.o(.text)
    sha512Final                              0x0801aa59   Thumb Code   148  sha512.o(.text)
    sha512Init                               0x0801aaed   Thumb Code    82  sha512.o(.text)
    sha512Compute                            0x0801ab3f   Thumb Code    60  sha512.o(.text)
    hmacFinal                                0x0801abc5   Thumb Code   106  hmac.o(.text)
    hmacUpdate                               0x0801ac2f   Thumb Code    26  hmac.o(.text)
    hmacInit                                 0x0801ac49   Thumb Code   140  hmac.o(.text)
    hmacCompute                              0x0801acd5   Thumb Code    78  hmac.o(.text)
    rc4Init                                  0x0801ad23   Thumb Code    80  rc4.o(.text)
    rc4Cipher                                0x0801ad73   Thumb Code   104  rc4.o(.text)
    desInit                                  0x0801addd   Thumb Code   692  des.o(.text)
    desEncryptBlock                          0x0801b091   Thumb Code   474  des.o(.text)
    desDecryptBlock                          0x0801b26b   Thumb Code   476  des.o(.text)
    des3Init                                 0x0801b469   Thumb Code   140  des3.o(.text)
    des3EncryptBlock                         0x0801b4f5   Thumb Code    44  des3.o(.text)
    des3DecryptBlock                         0x0801b521   Thumb Code    44  des3.o(.text)
    aesInit                                  0x0801b54d   Thumb Code   564  aes.o(.text)
    aesEncryptBlock                          0x0801b781   Thumb Code  1022  aes.o(.text)
    aesDecryptBlock                          0x0801bb7f   Thumb Code  1004  aes.o(.text)
    camelliaInit                             0x0801bf79   Thumb Code   634  camellia.o(.text)
    camelliaEncryptBlock                     0x0801c1f3   Thumb Code   656  camellia.o(.text)
    camelliaDecryptBlock                     0x0801c483   Thumb Code   642  camellia.o(.text)
    cbcEncrypt                               0x0801c715   Thumb Code    96  cipher_mode_cbc.o(.text)
    cbcDecrypt                               0x0801c775   Thumb Code   106  cipher_mode_cbc.o(.text)
    ccmXorBlock                              0x0801c7df   Thumb Code    24  cipher_mode_ccm.o(.text)
    ccmIncCounter                            0x0801c7f7   Thumb Code    38  cipher_mode_ccm.o(.text)
    ccmEncrypt                               0x0801c81d   Thumb Code   544  cipher_mode_ccm.o(.text)
    ccmDecrypt                               0x0801ca3d   Thumb Code   560  cipher_mode_ccm.o(.text)
    gcmXorBlock                              0x0801cc6d   Thumb Code    24  cipher_mode_gcm.o(.text)
    gcmShiftBlock                            0x0801cc85   Thumb Code    42  cipher_mode_gcm.o(.text)
    gcmMul                                   0x0801ccaf   Thumb Code   118  cipher_mode_gcm.o(.text)
    gcmIncCounter                            0x0801cd25   Thumb Code    36  cipher_mode_gcm.o(.text)
    gcmEncrypt                               0x0801cd49   Thumb Code   524  cipher_mode_gcm.o(.text)
    gcmDecrypt                               0x0801cf55   Thumb Code   540  cipher_mode_gcm.o(.text)
    dhInit                                   0x0801d171   Thumb Code    44  dh.o(.text)
    dhFree                                   0x0801d19d   Thumb Code    44  dh.o(.text)
    dhCheckPublicKey                         0x0801d1c9   Thumb Code    70  dh.o(.text)
    dhGenerateKeyPair                        0x0801d20f   Thumb Code   132  dh.o(.text)
    dhComputeSharedSecret                    0x0801d293   Thumb Code    96  dh.o(.text)
    rsaInitPublicKey                         0x0801d2f3   Thumb Code    20  rsa.o(.text)
    rsaFreePublicKey                         0x0801d307   Thumb Code    20  rsa.o(.text)
    rsaInitPrivateKey                        0x0801d31b   Thumb Code    68  rsa.o(.text)
    rsaFreePrivateKey                        0x0801d35f   Thumb Code    68  rsa.o(.text)
    rsaep                                    0x0801d3a3   Thumb Code    64  rsa.o(.text)
    rsadp                                    0x0801d3e3   Thumb Code   262  rsa.o(.text)
    rsasp1                                   0x0801d4e9   Thumb Code    20  rsa.o(.text)
    rsavp1                                   0x0801d4fd   Thumb Code    20  rsa.o(.text)
    rsaesPkcs1v15Encrypt                     0x0801d511   Thumb Code   254  rsa.o(.text)
    rsaesPkcs1v15Decrypt                     0x0801d60f   Thumb Code   252  rsa.o(.text)
    emsaPkcs1v15Encode                       0x0801d70b   Thumb Code   192  rsa.o(.text)
    rsassaPkcs1v15Sign                       0x0801d7cb   Thumb Code   168  rsa.o(.text)
    emsaPkcs1v15Decode                       0x0801d873   Thumb Code   274  rsa.o(.text)
    rsassaPkcs1v15Verify                     0x0801d985   Thumb Code   240  rsa.o(.text)
    dsaInitPublicKey                         0x0801da75   Thumb Code    36  dsa.o(.text)
    dsaFreePublicKey                         0x0801da99   Thumb Code    36  dsa.o(.text)
    dsaInitPrivateKey                        0x0801dabd   Thumb Code    36  dsa.o(.text)
    dsaFreePrivateKey                        0x0801dae1   Thumb Code    36  dsa.o(.text)
    dsaInitSignature                         0x0801db05   Thumb Code    20  dsa.o(.text)
    dsaFreeSignature                         0x0801db19   Thumb Code    20  dsa.o(.text)
    dsaWriteSignature                        0x0801db2d   Thumb Code   352  dsa.o(.text)
    dsaReadSignature                         0x0801dc8d   Thumb Code   194  dsa.o(.text)
    dsaGenerateSignature                     0x0801dd4f   Thumb Code   346  dsa.o(.text)
    dsaVerifySignature                       0x0801dea9   Thumb Code   408  dsa.o(.text)
    ecInit                                   0x0801e041   Thumb Code    28  ec.o(.text)
    ecInitDomainParameters                   0x0801e05d   Thumb Code    50  ec.o(.text)
    ecFree                                   0x0801e08f   Thumb Code    28  ec.o(.text)
    ecFreeDomainParameters                   0x0801e0ab   Thumb Code    44  ec.o(.text)
    ecLoadDomainParameters                   0x0801e0d7   Thumb Code   166  ec.o(.text)
    ecCopy                                   0x0801e17d   Thumb Code    70  ec.o(.text)
    ecImport                                 0x0801e1c3   Thumb Code    96  ec.o(.text)
    ecExport                                 0x0801e223   Thumb Code    82  ec.o(.text)
    ecProjectify                             0x0801e275   Thumb Code    48  ec.o(.text)
    ecMulMod                                 0x0801e2a5   Thumb Code    76  ec.o(.text)
    ecSqrMod                                 0x0801e2f1   Thumb Code    68  ec.o(.text)
    ecAffinify                               0x0801e335   Thumb Code   166  ec.o(.text)
    ecAddMod                                 0x0801e3db   Thumb Code    68  ec.o(.text)
    ecIsPointAffine                          0x0801e41f   Thumb Code   168  ec.o(.text)
    ecSubMod                                 0x0801e4c7   Thumb Code    68  ec.o(.text)
    ecDouble                                 0x0801e50b   Thumb Code   804  ec.o(.text)
    ecAdd                                    0x0801e82f   Thumb Code   990  ec.o(.text)
    ecFullAdd                                0x0801ec0d   Thumb Code   228  ec.o(.text)
    ecFullSub                                0x0801ecf1   Thumb Code   110  ec.o(.text)
    ecMult                                   0x0801ed5f   Thumb Code   480  ec.o(.text)
    ecTwinMultF                              0x0801ef3f   Thumb Code    54  ec.o(.text)
    ecTwinMult                               0x0801ef75   Thumb Code   658  ec.o(.text)
    secp128r1Mod                             0x0801f209   Thumb Code   144  ec_curves.o(.text)
    secp128r2Mod                             0x0801f299   Thumb Code   144  ec_curves.o(.text)
    secp160k1Mod                             0x0801f329   Thumb Code   164  ec_curves.o(.text)
    secp160r1Mod                             0x0801f3cd   Thumb Code   144  ec_curves.o(.text)
    secp160r2Mod                             0x0801f45d   Thumb Code   164  ec_curves.o(.text)
    secp192k1Mod                             0x0801f501   Thumb Code   164  ec_curves.o(.text)
    secp192r1Mod                             0x0801f5a5   Thumb Code   280  ec_curves.o(.text)
    secp224k1Mod                             0x0801f6bd   Thumb Code   164  ec_curves.o(.text)
    secp224r1Mod                             0x0801f761   Thumb Code   324  ec_curves.o(.text)
    secp256k1Mod                             0x0801f8a5   Thumb Code   164  ec_curves.o(.text)
    secp256r1Mod                             0x0801f949   Thumb Code   620  ec_curves.o(.text)
    secp384r1Mod                             0x0801fbb5   Thumb Code   618  ec_curves.o(.text)
    secp521r1Mod                             0x0801fe1f   Thumb Code   138  ec_curves.o(.text)
    ecGetCurveInfo                           0x0801fea9   Thumb Code   406  ec_curves.o(.text)
    ecdhInit                                 0x080200f1   Thumb Code    36  ecdh.o(.text)
    ecdhFree                                 0x08020115   Thumb Code    36  ecdh.o(.text)
    ecdhGenerateKeyPair                      0x08020139   Thumb Code   116  ecdh.o(.text)
    ecdhCheckPublicKey                       0x080201ad   Thumb Code   102  ecdh.o(.text)
    ecdhComputeSharedSecret                  0x08020213   Thumb Code   134  ecdh.o(.text)
    ecdsaInitSignature                       0x08020299   Thumb Code    20  ecdsa.o(.text)
    ecdsaFreeSignature                       0x080202ad   Thumb Code    20  ecdsa.o(.text)
    ecdsaWriteSignature                      0x080202c1   Thumb Code   352  ecdsa.o(.text)
    ecdsaReadSignature                       0x08020421   Thumb Code   194  ecdsa.o(.text)
    ecdsaGenerateSignature                   0x080204e3   Thumb Code   382  ecdsa.o(.text)
    ecdsaVerifySignature                     0x08020661   Thumb Code   442  ecdsa.o(.text)
    mpiInit                                  0x0802081d   Thumb Code    12  mpi.o(.text)
    mpiFree                                  0x08020829   Thumb Code    32  mpi.o(.text)
    mpiGrow                                  0x08020849   Thumb Code    80  mpi.o(.text)
    mpiGetLength                             0x08020899   Thumb Code    38  mpi.o(.text)
    mpiGetByteLength                         0x080208bf   Thumb Code    56  mpi.o(.text)
    mpiGetBitLength                          0x080208f7   Thumb Code    56  mpi.o(.text)
    mpiSetBitValue                           0x0802092f   Thumb Code    90  mpi.o(.text)
    mpiGetBitValue                           0x08020989   Thumb Code    34  mpi.o(.text)
    mpiComp                                  0x080209ab   Thumb Code   138  mpi.o(.text)
    mpiCompInt                               0x08020a35   Thumb Code    52  mpi.o(.text)
    mpiCompAbs                               0x08020a69   Thumb Code   104  mpi.o(.text)
    mpiCopy                                  0x08020ad1   Thumb Code    70  mpi.o(.text)
    mpiSetValue                              0x08020b17   Thumb Code    64  mpi.o(.text)
    mpiRand                                  0x08020b57   Thumb Code   112  mpi.o(.text)
    mpiReadRaw                               0x08020bc7   Thumb Code   110  mpi.o(.text)
    mpiWriteRaw                              0x08020c35   Thumb Code    72  mpi.o(.text)
    mpiSubAbs                                0x08020c7d   Thumb Code   226  mpi.o(.text)
    mpiAddAbs                                0x08020d5f   Thumb Code   220  mpi.o(.text)
    mpiAdd                                   0x08020e3b   Thumb Code    94  mpi.o(.text)
    mpiAddInt                                0x08020e99   Thumb Code    56  mpi.o(.text)
    mpiSub                                   0x08020ed1   Thumb Code    86  mpi.o(.text)
    mpiSubInt                                0x08020f27   Thumb Code    56  mpi.o(.text)
    mpiShiftLeft                             0x08020f5f   Thumb Code   166  mpi.o(.text)
    mpiShiftRight                            0x08021005   Thumb Code   162  mpi.o(.text)
    mpiMulAccCore                            0x080210a7   Thumb Code   112  mpi.o(.text)
    mpiMul                                   0x08021117   Thumb Code   218  mpi.o(.text)
    mpiMulInt                                0x080211f1   Thumb Code    56  mpi.o(.text)
    mpiDiv                                   0x08021229   Thumb Code   288  mpi.o(.text)
    mpiDivInt                                0x08021349   Thumb Code    64  mpi.o(.text)
    mpiMod                                   0x08021389   Thumb Code   204  mpi.o(.text)
    mpiAddMod                                0x08021455   Thumb Code    56  mpi.o(.text)
    mpiSubMod                                0x0802148d   Thumb Code    56  mpi.o(.text)
    mpiMulMod                                0x080214c5   Thumb Code    56  mpi.o(.text)
    mpiInvMod                                0x080214fd   Thumb Code   338  mpi.o(.text)
    mpiMontgomeryMul                         0x0802164f   Thumb Code   270  mpi.o(.text)
    mpiMontgomeryRed                         0x0802175d   Thumb Code    52  mpi.o(.text)
    mpiExpMod                                0x08021791   Thumb Code   846  mpi.o(.text)
    mpiDump                                  0x08021adf   Thumb Code   100  mpi.o(.text)
    asn1ReadTag                              0x08021b55   Thumb Code   220  asn1.o(.text)
    asn1CheckTag                             0x08021c31   Thumb Code    38  asn1.o(.text)
    asn1ReadInt32                            0x08021c57   Thumb Code   118  asn1.o(.text)
    asn1WriteTag                             0x08021ccd   Thumb Code   368  asn1.o(.text)
    asn1WriteInt32                           0x08021e3d   Thumb Code    98  asn1.o(.text)
    asn1CheckOid                             0x08021e9f   Thumb Code    54  asn1.o(.text)
    asn1DumpObject                           0x08021ed5   Thumb Code     6  asn1.o(.text)
    oidCheck                                 0x08021edd   Thumb Code    68  oid.o(.text)
    oidComp                                  0x08021f21   Thumb Code    68  oid.o(.text)
    oidEncodeSubIdentifier                   0x08021f65   Thumb Code    88  oid.o(.text)
    oidDecodeSubIdentifier                   0x08021fbd   Thumb Code    58  oid.o(.text)
    oidFromString                            0x08021ff7   Thumb Code   250  oid.o(.text)
    oidToString                              0x080220f1   Thumb Code   172  oid.o(.text)
    x509ParseSignatureValue                  0x080221ad   Thumb Code    94  x509.o(.text)
    x509ParseSignatureAlgo                   0x0802220b   Thumb Code   102  x509.o(.text)
    x509ParseBasicConstraints                0x08022271   Thumb Code   174  x509.o(.text)
    x509ParseExtensions                      0x0802231f   Thumb Code   422  x509.o(.text)
    x509ParseSubjectUniqueId                 0x080224c5   Thumb Code    84  x509.o(.text)
    x509ParseIssuerUniqueId                  0x08022519   Thumb Code    84  x509.o(.text)
    x509ParseEcPublicKey                     0x0802256d   Thumb Code    24  x509.o(.text)
    x509ParseDsaPublicKey                    0x08022585   Thumb Code    68  x509.o(.text)
    x509ParseRsaPublicKey                    0x080225c9   Thumb Code   168  x509.o(.text)
    x509ParseEcParameters                    0x08022671   Thumb Code    68  x509.o(.text)
    x509ParseDsaParameters                   0x080226b5   Thumb Code   226  x509.o(.text)
    x509ParseAlgorithmIdentifier             0x08022797   Thumb Code   226  x509.o(.text)
    x509ParseSubjectPublicKeyInfo            0x08022879   Thumb Code   268  x509.o(.text)
    x509ParseName                            0x08022985   Thumb Code   564  x509.o(.text)
    x509ParseInt                             0x08022bb9   Thumb Code    60  x509.o(.text)
    x509ParseTime                            0x08022bf5   Thumb Code   356  x509.o(.text)
    x509ParseValidity                        0x08022d59   Thumb Code   122  x509.o(.text)
    x509ParseSignature                       0x08022dd3   Thumb Code   114  x509.o(.text)
    x509ParseSerialNumber                    0x08022e45   Thumb Code    72  x509.o(.text)
    x509ParseVersion                         0x08022e8d   Thumb Code   134  x509.o(.text)
    x509ParseTbsCertificate                  0x08022f13   Thumb Code   332  x509.o(.text)
    x509ParseCertificate                     0x0802305f   Thumb Code   132  x509.o(.text)
    x509ReadRsaPublicKey                     0x080230e3   Thumb Code    74  x509.o(.text)
    x509ReadDsaPublicKey                     0x0802312d   Thumb Code   136  x509.o(.text)
    x509ValidateCertificate                  0x080231b5   Thumb Code   766  x509.o(.text)
    pemSearchTag                             0x08023501   Thumb Code    58  pem.o(.text)
    pemReadDhParameters                      0x0802353b   Thumb Code   380  pem.o(.text)
    pemReadRsaPrivateKey                     0x080236b7   Thumb Code   938  pem.o(.text)
    pemReadDsaPrivateKey                     0x08023a61   Thumb Code   600  pem.o(.text)
    pemReadEcParameters                      0x08023cb9   Thumb Code   886  pem.o(.text)
    pemReadEcPrivateKey                      0x0802402f   Thumb Code   858  pem.o(.text)
    pemReadCertificate                       0x08024389   Thumb Code   390  pem.o(.text)
    yarrowInit                               0x08024549   Thumb Code    50  yarrow.o(.text)
    yarrowRelease                            0x0802457b   Thumb Code    22  yarrow.o(.text)
    yarrowFastReseed                         0x08024591   Thumb Code   106  yarrow.o(.text)
    yarrowSeed                               0x080245fb   Thumb Code    38  yarrow.o(.text)
    yarrowSlowReseed                         0x08024621   Thumb Code   144  yarrow.o(.text)
    yarrowAddEntropy                         0x080246b1   Thumb Code   206  yarrow.o(.text)
    yarrowGenerateBlock                      0x0802477f   Thumb Code    54  yarrow.o(.text)
    yarrowRead                               0x080247b5   Thumb Code   128  yarrow.o(.text)
    pxPortInitialiseStack                    0x0802483d   Thumb Code    26  port.o(.text)
    vPortSetupTimerInterrupt                 0x08024857   Thumb Code    26  port.o(.text)
    xPortStartScheduler                      0x08024871   Thumb Code    42  port.o(.text)
    vPortEndScheduler                        0x0802489b   Thumb Code     2  port.o(.text)
    vPortYield                               0x0802489d   Thumb Code    20  port.o(.text)
    vPortEnterCritical                       0x080248b1   Thumb Code    26  port.o(.text)
    vPortExitCritical                        0x080248cb   Thumb Code    26  port.o(.text)
    SysTick_Handler                          0x080248e5   Thumb Code    30  port.o(.text)
    vListInitialise                          0x08024915   Thumb Code    26  list.o(.text)
    vListInitialiseItem                      0x0802492f   Thumb Code     6  list.o(.text)
    vListInsertEnd                           0x08024935   Thumb Code    24  list.o(.text)
    vListInsert                              0x0802494d   Thumb Code    52  list.o(.text)
    uxListRemove                             0x08024981   Thumb Code    40  list.o(.text)
    xQueueGenericReset                       0x080249a9   Thumb Code   110  queue.o(.text)
    xQueueGenericCreate                      0x08024a17   Thumb Code    74  queue.o(.text)
    xQueueGenericSend                        0x08024b7d   Thumb Code   234  queue.o(.text)
    xQueueCreateMutex                        0x08024c67   Thumb Code    76  queue.o(.text)
    xQueueCreateCountingSemaphore            0x08024cb3   Thumb Code    26  queue.o(.text)
    xQueueGenericSendFromISR                 0x08024ccd   Thumb Code   106  queue.o(.text)
    xQueueGiveFromISR                        0x08024d37   Thumb Code    90  queue.o(.text)
    xQueueGenericReceive                     0x08024dd5   Thumb Code   284  queue.o(.text)
    xQueueReceiveFromISR                     0x08024ef1   Thumb Code    96  queue.o(.text)
    xQueuePeekFromISR                        0x08024f51   Thumb Code    50  queue.o(.text)
    uxQueueMessagesWaiting                   0x08024f83   Thumb Code    18  queue.o(.text)
    uxQueueSpacesAvailable                   0x08024f95   Thumb Code    24  queue.o(.text)
    uxQueueMessagesWaitingFromISR            0x08024fad   Thumb Code     6  queue.o(.text)
    vQueueDelete                             0x08024fb3   Thumb Code    14  queue.o(.text)
    uxQueueGetQueueNumber                    0x08024fc1   Thumb Code     6  queue.o(.text)
    vQueueSetQueueNumber                     0x08024fc7   Thumb Code     4  queue.o(.text)
    ucQueueGetQueueType                      0x08024fcb   Thumb Code     8  queue.o(.text)
    xQueueIsQueueEmptyFromISR                0x08024fd3   Thumb Code    14  queue.o(.text)
    xQueueIsQueueFullFromISR                 0x08024fe1   Thumb Code    18  queue.o(.text)
    xTaskGenericCreate                       0x080250e1   Thumb Code   232  tasks.o(.text)
    vTaskDelete                              0x080251f3   Thumb Code   138  tasks.o(.text)
    xTaskIncrementTick                       0x0802527d   Thumb Code   242  tasks.o(.text)
    xTaskResumeAll                           0x0802536f   Thumb Code   268  tasks.o(.text)
    vTaskSuspendAll                          0x080254b9   Thumb Code    12  tasks.o(.text)
    vTaskDelayUntil                          0x080254c5   Thumb Code   126  tasks.o(.text)
    vTaskDelay                               0x08025543   Thumb Code    72  tasks.o(.text)
    uxTaskPriorityGet                        0x0802558b   Thumb Code    30  tasks.o(.text)
    uxTaskPriorityGetFromISR                 0x080255a9   Thumb Code    38  tasks.o(.text)
    vTaskPrioritySet                         0x080255cf   Thumb Code   214  tasks.o(.text)
    vTaskSwitchContext                       0x080256a5   Thumb Code    76  tasks.o(.text)
    vTaskSuspend                             0x080256f1   Thumb Code   150  tasks.o(.text)
    vTaskResume                              0x080257bf   Thumb Code   150  tasks.o(.text)
    xTaskResumeFromISR                       0x08025855   Thumb Code   112  tasks.o(.text)
    vTaskStartScheduler                      0x08025941   Thumb Code    62  tasks.o(.text)
    vTaskEndScheduler                        0x0802597f   Thumb Code    18  tasks.o(.text)
    xTaskGetTickCount                        0x08025991   Thumb Code     6  tasks.o(.text)
    xTaskGetTickCountFromISR                 0x08025997   Thumb Code     8  tasks.o(.text)
    uxTaskGetNumberOfTasks                   0x0802599f   Thumb Code     6  tasks.o(.text)
    uxTaskGetSystemState                     0x08025a6b   Thumb Code   132  tasks.o(.text)
    xTaskGetIdleTaskHandle                   0x08025aef   Thumb Code     6  tasks.o(.text)
    vTaskSetApplicationTaskTag               0x08025af5   Thumb Code    28  tasks.o(.text)
    xTaskGetApplicationTaskTag               0x08025b11   Thumb Code    28  tasks.o(.text)
    xTaskCallApplicationTaskHook             0x08025b2d   Thumb Code    40  tasks.o(.text)
    vTaskPlaceOnEventList                    0x08025b55   Thumb Code    84  tasks.o(.text)
    vTaskPlaceOnUnorderedEventList           0x08025ba9   Thumb Code   100  tasks.o(.text)
    xTaskRemoveFromEventList                 0x08025c0d   Thumb Code   178  tasks.o(.text)
    xTaskRemoveFromUnorderedEventList        0x08025cbf   Thumb Code    94  tasks.o(.text)
    vTaskSetTimeOutState                     0x08025d1d   Thumb Code    14  tasks.o(.text)
    xTaskCheckForTimeOut                     0x08025d2b   Thumb Code    84  tasks.o(.text)
    vTaskMissedYield                         0x08025d7f   Thumb Code     8  tasks.o(.text)
    uxTaskGetTaskNumber                      0x08025d87   Thumb Code    14  tasks.o(.text)
    vTaskSetTaskNumber                       0x08025d95   Thumb Code     8  tasks.o(.text)
    uxTaskGetStackHighWaterMark              0x08025d9d   Thumb Code    34  tasks.o(.text)
    xTaskGetCurrentTaskHandle                0x08025dbf   Thumb Code     6  tasks.o(.text)
    xTaskGetSchedulerState                   0x08025dc5   Thumb Code    24  tasks.o(.text)
    vTaskPriorityInherit                     0x08025ddd   Thumb Code   164  tasks.o(.text)
    xTaskPriorityDisinherit                  0x08025e81   Thumb Code   122  tasks.o(.text)
    uxTaskResetEventItemValue                0x08025efb   Thumb Code    24  tasks.o(.text)
    pvTaskIncrementMutexHeldCount            0x08025f13   Thumb Code    26  tasks.o(.text)
    ulTaskNotifyTake                         0x08025f2d   Thumb Code   162  tasks.o(.text)
    xTaskNotifyWait                          0x08025fcf   Thumb Code   238  tasks.o(.text)
    xTaskGenericNotify                       0x080260bd   Thumb Code   166  tasks.o(.text)
    xTaskGenericNotifyFromISR                0x08026163   Thumb Code   200  tasks.o(.text)
    vTaskNotifyGiveFromISR                   0x0802622b   Thumb Code   124  tasks.o(.text)
    xTaskNotifyStateClear                    0x080262a7   Thumb Code    50  tasks.o(.text)
    pvPortMalloc                             0x080262ed   Thumb Code    24  heap_3.o(.text)
    vPortFree                                0x08026305   Thumb Code    22  heap_3.o(.text)
    STM_EVAL_LEDInit                         0x0802631d   Thumb Code    62  stm322xg_eval.o(.text)
    STM_EVAL_LEDOn                           0x0802635b   Thumb Code    16  stm322xg_eval.o(.text)
    STM_EVAL_LEDOff                          0x0802636b   Thumb Code    16  stm322xg_eval.o(.text)
    STM_EVAL_LEDToggle                       0x0802637b   Thumb Code    26  stm322xg_eval.o(.text)
    STM_EVAL_PBInit                          0x08026395   Thumb Code   150  stm322xg_eval.o(.text)
    STM_EVAL_PBGetState                      0x0802642b   Thumb Code    22  stm322xg_eval.o(.text)
    STM_EVAL_COMInit                         0x08026441   Thumb Code   174  stm322xg_eval.o(.text)
    SD_LowLevel_DeInit                       0x080264ef   Thumb Code   140  stm322xg_eval.o(.text)
    SD_LowLevel_Init                         0x0802657b   Thumb Code   184  stm322xg_eval.o(.text)
    SD_LowLevel_DMA_TxConfig                 0x08026633   Thumb Code   134  stm322xg_eval.o(.text)
    SD_LowLevel_DMA_RxConfig                 0x080266b9   Thumb Code   242  stm322xg_eval.o(.text)
    sEE_LowLevel_DeInit                      0x080267ab   Thumb Code   134  stm322xg_eval.o(.text)
    sEE_LowLevel_Init                        0x08026831   Thumb Code   316  stm322xg_eval.o(.text)
    sEE_LowLevel_DMAConfig                   0x0802696d   Thumb Code    56  stm322xg_eval.o(.text)
    I2C_WriteDeviceRegister                  0x08026a3b   Thumb Code   328  stm322xg_eval_ioe.o(.text)
    I2C_ReadDeviceRegister                   0x08026b83   Thumb Code   412  stm322xg_eval_ioe.o(.text)
    IOE_TempSens_Config                      0x08026d1f   Thumb Code    62  stm322xg_eval_ioe.o(.text)
    IOE_IOEdgeConfig                         0x08026d5d   Thumb Code    80  stm322xg_eval_ioe.o(.text)
    IOE_IOAFConfig                           0x08026dad   Thumb Code    74  stm322xg_eval_ioe.o(.text)
    IOE_IOPinConfig                          0x08026df7   Thumb Code    46  stm322xg_eval_ioe.o(.text)
    IOE_WriteIOPin                           0x08026e25   Thumb Code    60  stm322xg_eval_ioe.o(.text)
    IOE_FnctCmd                              0x08026e61   Thumb Code    46  stm322xg_eval_ioe.o(.text)
    IOE_TS_Config                            0x08026eaf   Thumb Code   196  stm322xg_eval_ioe.o(.text)
    IOE_Reset                                0x08026f73   Thumb Code    34  stm322xg_eval_ioe.o(.text)
    IOE_ReadID                               0x08026f95   Thumb Code    38  stm322xg_eval_ioe.o(.text)
    IOE_IsOperational                        0x08026fbb   Thumb Code    36  stm322xg_eval_ioe.o(.text)
    IOE_Config                               0x080270a3   Thumb Code   212  stm322xg_eval_ioe.o(.text)
    IOE_GITConfig                            0x080271e5   Thumb Code    46  stm322xg_eval_ioe.o(.text)
    IOE_GITCmd                               0x08027213   Thumb Code    42  stm322xg_eval_ioe.o(.text)
    IOE_IOITConfig                           0x0802723d   Thumb Code    46  stm322xg_eval_ioe.o(.text)
    IOE_ITOutConfig                          0x0802726b   Thumb Code   100  stm322xg_eval_ioe.o(.text)
    IOE_ITConfig                             0x080272cf   Thumb Code   172  stm322xg_eval_ioe.o(.text)
    IOE_ReadIOPin                            0x0802737b   Thumb Code    56  stm322xg_eval_ioe.o(.text)
    IOE_JoyStickGetState                     0x080273b3   Thumb Code    80  stm322xg_eval_ioe.o(.text)
    I2C_ReadDataBuffer                       0x08027403   Thumb Code   400  stm322xg_eval_ioe.o(.text)
    IOE_TS_GetState                          0x080275ff   Thumb Code   148  stm322xg_eval_ioe.o(.text)
    IOE_TempSens_GetData                     0x08027693   Thumb Code    92  stm322xg_eval_ioe.o(.text)
    IOE_GetGITStatus                         0x080276ef   Thumb Code    36  stm322xg_eval_ioe.o(.text)
    IOE_ClearGITPending                      0x08027713   Thumb Code    20  stm322xg_eval_ioe.o(.text)
    IOE_GetIOITStatus                        0x08027727   Thumb Code    32  stm322xg_eval_ioe.o(.text)
    IOE_ClearIOITPending                     0x08027747   Thumb Code    50  stm322xg_eval_ioe.o(.text)
    LCD_WriteReg                             0x080277a1   Thumb Code    10  stm322xg_eval_lcd.o(.text)
    LCD_DisplayOff                           0x080277ab   Thumb Code    12  stm322xg_eval_lcd.o(.text)
    LCD_DeInit                               0x080277b7   Thumb Code   538  stm322xg_eval_lcd.o(.text)
    LCD_SetFont                              0x080279d1   Thumb Code     6  stm322xg_eval_lcd.o(.text)
    LCD_ReadReg                              0x080279f7   Thumb Code    12  stm322xg_eval_lcd.o(.text)
    LCD_FSMCConfig                           0x08027a03   Thumb Code    98  stm322xg_eval_lcd.o(.text)
    LCD_CtrlLinesConfig                      0x08027a65   Thumb Code   288  stm322xg_eval_lcd.o(.text)
    STM322xG_LCD_Init                        0x08027b85   Thumb Code  1068  stm322xg_eval_lcd.o(.text)
    LCD_SetColors                            0x08027fb1   Thumb Code    20  stm322xg_eval_lcd.o(.text)
    LCD_GetColors                            0x08027fc5   Thumb Code    14  stm322xg_eval_lcd.o(.text)
    LCD_SetTextColor                         0x08027fd3   Thumb Code    12  stm322xg_eval_lcd.o(.text)
    LCD_SetBackColor                         0x08027fdf   Thumb Code    12  stm322xg_eval_lcd.o(.text)
    LCD_GetFont                              0x08027feb   Thumb Code     6  stm322xg_eval_lcd.o(.text)
    LCD_SetCursor                            0x08027ff1   Thumb Code    24  stm322xg_eval_lcd.o(.text)
    LCD_WriteRAM                             0x08028009   Thumb Code     8  stm322xg_eval_lcd.o(.text)
    LCD_WriteRAM_Prepare                     0x08028011   Thumb Code    10  stm322xg_eval_lcd.o(.text)
    LCD_DrawChar                             0x0802801b   Thumb Code   160  stm322xg_eval_lcd.o(.text)
    LCD_DisplayChar                          0x080280bb   Thumb Code    42  stm322xg_eval_lcd.o(.text)
    LCD_ClearLine                            0x080280e5   Thumb Code    46  stm322xg_eval_lcd.o(.text)
    LCD_Clear                                0x08028113   Thumb Code    40  stm322xg_eval_lcd.o(.text)
    LCD_DisplayStringLine                    0x0802813b   Thumb Code    72  stm322xg_eval_lcd.o(.text)
    LCD_SetDisplayWindow                     0x08028183   Thumb Code    88  stm322xg_eval_lcd.o(.text)
    LCD_WindowModeDisable                    0x080281db   Thumb Code    28  stm322xg_eval_lcd.o(.text)
    LCD_DrawLine                             0x080281f7   Thumb Code    86  stm322xg_eval_lcd.o(.text)
    LCD_DrawRect                             0x0802824d   Thumb Code    66  stm322xg_eval_lcd.o(.text)
    LCD_DrawCircle                           0x0802828f   Thumb Code   270  stm322xg_eval_lcd.o(.text)
    LCD_DrawMonoPict                         0x0802839d   Thumb Code    76  stm322xg_eval_lcd.o(.text)
    LCD_WriteBMP                             0x080283e9   Thumb Code    74  stm322xg_eval_lcd.o(.text)
    LCD_DrawFullRect                         0x08028433   Thumb Code   132  stm322xg_eval_lcd.o(.text)
    LCD_DrawFullCircle                       0x080284b7   Thumb Code   162  stm322xg_eval_lcd.o(.text)
    LCD_DrawUniLine                          0x08028583   Thumb Code   286  stm322xg_eval_lcd.o(.text)
    LCD_PolyLine                             0x080286a1   Thumb Code    68  stm322xg_eval_lcd.o(.text)
    LCD_ClosedPolyLine                       0x0802875b   Thumb Code    48  stm322xg_eval_lcd.o(.text)
    LCD_PolyLineRelative                     0x0802878b   Thumb Code    18  stm322xg_eval_lcd.o(.text)
    LCD_ClosedPolyLineRelative               0x0802879d   Thumb Code    28  stm322xg_eval_lcd.o(.text)
    LCD_FillPolyLine                         0x080287b9   Thumb Code   580  stm322xg_eval_lcd.o(.text)
    LCD_ReadRAM                              0x080289fd   Thumb Code    14  stm322xg_eval_lcd.o(.text)
    LCD_PowerOn                              0x08028a0b   Thumb Code   118  stm322xg_eval_lcd.o(.text)
    LCD_DisplayOn                            0x08028a81   Thumb Code    14  stm322xg_eval_lcd.o(.text)
    NVIC_PriorityGroupConfig                 0x08028a99   Thumb Code    10  misc.o(.text)
    NVIC_Init                                0x08028aa3   Thumb Code   106  misc.o(.text)
    NVIC_SetVectorTable                      0x08028b0d   Thumb Code    14  misc.o(.text)
    NVIC_SystemLPConfig                      0x08028b1b   Thumb Code    34  misc.o(.text)
    SysTick_CLKSourceConfig                  0x08028b3d   Thumb Code    40  misc.o(.text)
    ADC_DeInit                               0x08028b79   Thumb Code    22  stm32f2xx_adc.o(.text)
    ADC_Init                                 0x08028b8f   Thumb Code    74  stm32f2xx_adc.o(.text)
    ADC_StructInit                           0x08028bd9   Thumb Code    20  stm32f2xx_adc.o(.text)
    ADC_CommonInit                           0x08028bed   Thumb Code    34  stm32f2xx_adc.o(.text)
    ADC_CommonStructInit                     0x08028c0f   Thumb Code    12  stm32f2xx_adc.o(.text)
    ADC_Cmd                                  0x08028c1b   Thumb Code    22  stm32f2xx_adc.o(.text)
    ADC_AnalogWatchdogCmd                    0x08028c31   Thumb Code    16  stm32f2xx_adc.o(.text)
    ADC_AnalogWatchdogThresholdsConfig       0x08028c41   Thumb Code     6  stm32f2xx_adc.o(.text)
    ADC_AnalogWatchdogSingleChannelConfig    0x08028c47   Thumb Code    16  stm32f2xx_adc.o(.text)
    ADC_TempSensorVrefintCmd                 0x08028c57   Thumb Code    34  stm32f2xx_adc.o(.text)
    ADC_VBATCmd                              0x08028c79   Thumb Code    34  stm32f2xx_adc.o(.text)
    ADC_RegularChannelConfig                 0x08028c9b   Thumb Code   184  stm32f2xx_adc.o(.text)
    ADC_SoftwareStartConv                    0x08028d53   Thumb Code    10  stm32f2xx_adc.o(.text)
    ADC_GetSoftwareStartConvStatus           0x08028d5d   Thumb Code    20  stm32f2xx_adc.o(.text)
    ADC_EOCOnEachRegularChannelCmd           0x08028d71   Thumb Code    22  stm32f2xx_adc.o(.text)
    ADC_ContinuousModeCmd                    0x08028d87   Thumb Code    22  stm32f2xx_adc.o(.text)
    ADC_DiscModeChannelCountConfig           0x08028d9d   Thumb Code    24  stm32f2xx_adc.o(.text)
    ADC_DiscModeCmd                          0x08028db5   Thumb Code    22  stm32f2xx_adc.o(.text)
    ADC_GetConversionValue                   0x08028dcb   Thumb Code     8  stm32f2xx_adc.o(.text)
    ADC_GetMultiModeConversionValue          0x08028dd3   Thumb Code     8  stm32f2xx_adc.o(.text)
    ADC_DMACmd                               0x08028ddb   Thumb Code    22  stm32f2xx_adc.o(.text)
    ADC_DMARequestAfterLastTransferCmd       0x08028df1   Thumb Code    22  stm32f2xx_adc.o(.text)
    ADC_MultiModeDMARequestAfterLastTransferCmd 0x08028e07   Thumb Code    34  stm32f2xx_adc.o(.text)
    ADC_InjectedChannelConfig                0x08028e29   Thumb Code   130  stm32f2xx_adc.o(.text)
    ADC_InjectedSequencerLengthConfig        0x08028eab   Thumb Code    24  stm32f2xx_adc.o(.text)
    ADC_SetInjectedOffset                    0x08028ec3   Thumb Code    20  stm32f2xx_adc.o(.text)
    ADC_ExternalTrigInjectedConvConfig       0x08028ed7   Thumb Code    16  stm32f2xx_adc.o(.text)
    ADC_ExternalTrigInjectedConvEdgeConfig   0x08028ee7   Thumb Code    16  stm32f2xx_adc.o(.text)
    ADC_SoftwareStartInjectedConv            0x08028ef7   Thumb Code    10  stm32f2xx_adc.o(.text)
    ADC_GetSoftwareStartInjectedConvCmdStatus 0x08028f01   Thumb Code    20  stm32f2xx_adc.o(.text)
    ADC_AutoInjectedConvCmd                  0x08028f15   Thumb Code    22  stm32f2xx_adc.o(.text)
    ADC_InjectedDiscModeCmd                  0x08028f2b   Thumb Code    22  stm32f2xx_adc.o(.text)
    ADC_GetInjectedConversionValue           0x08028f41   Thumb Code    28  stm32f2xx_adc.o(.text)
    ADC_ITConfig                             0x08028f5d   Thumb Code    56  stm32f2xx_adc.o(.text)
    ADC_GetFlagStatus                        0x08028f95   Thumb Code    18  stm32f2xx_adc.o(.text)
    ADC_ClearFlag                            0x08028fa7   Thumb Code     6  stm32f2xx_adc.o(.text)
    ADC_GetITStatus                          0x08028fad   Thumb Code    38  stm32f2xx_adc.o(.text)
    ADC_ClearITPendingBit                    0x08028fd3   Thumb Code    10  stm32f2xx_adc.o(.text)
    DMA_DeInit                               0x08028fdd   Thumb Code   324  stm32f2xx_dma.o(.text)
    DMA_Init                                 0x08029121   Thumb Code    82  stm32f2xx_dma.o(.text)
    DMA_StructInit                           0x08029173   Thumb Code    34  stm32f2xx_dma.o(.text)
    DMA_Cmd                                  0x08029195   Thumb Code    22  stm32f2xx_dma.o(.text)
    DMA_PeriphIncOffsetSizeConfig            0x080291ab   Thumb Code    22  stm32f2xx_dma.o(.text)
    DMA_FlowControllerConfig                 0x080291c1   Thumb Code    22  stm32f2xx_dma.o(.text)
    DMA_SetCurrDataCounter                   0x080291d7   Thumb Code     4  stm32f2xx_dma.o(.text)
    DMA_GetCurrDataCounter                   0x080291db   Thumb Code     8  stm32f2xx_dma.o(.text)
    DMA_DoubleBufferModeConfig               0x080291e3   Thumb Code    24  stm32f2xx_dma.o(.text)
    DMA_DoubleBufferModeCmd                  0x080291fb   Thumb Code    22  stm32f2xx_dma.o(.text)
    DMA_MemoryTargetConfig                   0x08029211   Thumb Code    10  stm32f2xx_dma.o(.text)
    DMA_GetCurrentMemoryTarget               0x0802921b   Thumb Code    20  stm32f2xx_dma.o(.text)
    DMA_GetCmdStatus                         0x0802922f   Thumb Code    20  stm32f2xx_dma.o(.text)
    DMA_GetFIFOStatus                        0x08029243   Thumb Code    12  stm32f2xx_dma.o(.text)
    DMA_GetFlagStatus                        0x0802924f   Thumb Code    56  stm32f2xx_dma.o(.text)
    DMA_ClearFlag                            0x08029287   Thumb Code    40  stm32f2xx_dma.o(.text)
    DMA_ITConfig                             0x080292af   Thumb Code    58  stm32f2xx_dma.o(.text)
    DMA_GetITStatus                          0x080292e9   Thumb Code    84  stm32f2xx_dma.o(.text)
    DMA_ClearITPendingBit                    0x0802933d   Thumb Code    40  stm32f2xx_dma.o(.text)
    EXTI_DeInit                              0x08029385   Thumb Code    28  stm32f2xx_exti.o(.text)
    EXTI_Init                                0x080293a1   Thumb Code   142  stm32f2xx_exti.o(.text)
    EXTI_StructInit                          0x0802942f   Thumb Code    16  stm32f2xx_exti.o(.text)
    EXTI_GenerateSWInterrupt                 0x0802943f   Thumb Code    16  stm32f2xx_exti.o(.text)
    EXTI_GetFlagStatus                       0x0802944f   Thumb Code    22  stm32f2xx_exti.o(.text)
    EXTI_ClearFlag                           0x08029465   Thumb Code     8  stm32f2xx_exti.o(.text)
    EXTI_GetITStatus                         0x0802946d   Thumb Code    34  stm32f2xx_exti.o(.text)
    EXTI_ClearITPendingBit                   0x0802948f   Thumb Code     8  stm32f2xx_exti.o(.text)
    FSMC_NORSRAMDeInit                       0x080294a1   Thumb Code    54  stm32f2xx_fsmc.o(.text)
    FSMC_NORSRAMInit                         0x080294d7   Thumb Code   230  stm32f2xx_fsmc.o(.text)
    FSMC_NORSRAMStructInit                   0x080295bd   Thumb Code   114  stm32f2xx_fsmc.o(.text)
    FSMC_NORSRAMCmd                          0x0802962f   Thumb Code    46  stm32f2xx_fsmc.o(.text)
    FSMC_NANDDeInit                          0x0802965d   Thumb Code    62  stm32f2xx_fsmc.o(.text)
    FSMC_NANDInit                            0x0802969b   Thumb Code   132  stm32f2xx_fsmc.o(.text)
    FSMC_NANDStructInit                      0x0802971f   Thumb Code    54  stm32f2xx_fsmc.o(.text)
    FSMC_NANDCmd                             0x08029755   Thumb Code    86  stm32f2xx_fsmc.o(.text)
    FSMC_NANDECCCmd                          0x080297ab   Thumb Code    86  stm32f2xx_fsmc.o(.text)
    FSMC_GetECC                              0x08029801   Thumb Code    24  stm32f2xx_fsmc.o(.text)
    FSMC_PCCARDDeInit                        0x08029819   Thumb Code    36  stm32f2xx_fsmc.o(.text)
    FSMC_PCCARDInit                          0x0802983d   Thumb Code   130  stm32f2xx_fsmc.o(.text)
    FSMC_PCCARDStructInit                    0x080298bf   Thumb Code    60  stm32f2xx_fsmc.o(.text)
    FSMC_PCCARDCmd                           0x080298fb   Thumb Code    44  stm32f2xx_fsmc.o(.text)
    FSMC_ITConfig                            0x08029927   Thumb Code   128  stm32f2xx_fsmc.o(.text)
    FSMC_GetFlagStatus                       0x080299a7   Thumb Code    54  stm32f2xx_fsmc.o(.text)
    FSMC_ClearFlag                           0x080299dd   Thumb Code    62  stm32f2xx_fsmc.o(.text)
    FSMC_GetITStatus                         0x08029a1b   Thumb Code    72  stm32f2xx_fsmc.o(.text)
    FSMC_ClearITPendingBit                   0x08029a63   Thumb Code    66  stm32f2xx_fsmc.o(.text)
    GPIO_DeInit                              0x08029aa9   Thumb Code   220  stm32f2xx_gpio.o(.text)
    GPIO_Init                                0x08029b85   Thumb Code   150  stm32f2xx_gpio.o(.text)
    GPIO_StructInit                          0x08029c1b   Thumb Code    18  stm32f2xx_gpio.o(.text)
    GPIO_PinLockConfig                       0x08029c2d   Thumb Code    34  stm32f2xx_gpio.o(.text)
    GPIO_ReadInputDataBit                    0x08029c4f   Thumb Code    18  stm32f2xx_gpio.o(.text)
    GPIO_ReadInputData                       0x08029c61   Thumb Code     8  stm32f2xx_gpio.o(.text)
    GPIO_ReadOutputDataBit                   0x08029c69   Thumb Code    18  stm32f2xx_gpio.o(.text)
    GPIO_ReadOutputData                      0x08029c7b   Thumb Code     8  stm32f2xx_gpio.o(.text)
    GPIO_SetBits                             0x08029c83   Thumb Code     4  stm32f2xx_gpio.o(.text)
    GPIO_ResetBits                           0x08029c87   Thumb Code     4  stm32f2xx_gpio.o(.text)
    GPIO_WriteBit                            0x08029c8b   Thumb Code    10  stm32f2xx_gpio.o(.text)
    GPIO_Write                               0x08029c95   Thumb Code     4  stm32f2xx_gpio.o(.text)
    GPIO_ToggleBits                          0x08029c99   Thumb Code     8  stm32f2xx_gpio.o(.text)
    GPIO_PinAFConfig                         0x08029ca1   Thumb Code    48  stm32f2xx_gpio.o(.text)
    I2C_DeInit                               0x08029cf5   Thumb Code    82  stm32f2xx_i2c.o(.text)
    I2C_Init                                 0x08029d47   Thumb Code   218  stm32f2xx_i2c.o(.text)
    I2C_StructInit                           0x08029e21   Thumb Code    30  stm32f2xx_i2c.o(.text)
    I2C_Cmd                                  0x08029e3f   Thumb Code    24  stm32f2xx_i2c.o(.text)
    I2C_GenerateSTART                        0x08029e57   Thumb Code    24  stm32f2xx_i2c.o(.text)
    I2C_GenerateSTOP                         0x08029e6f   Thumb Code    24  stm32f2xx_i2c.o(.text)
    I2C_Send7bitAddress                      0x08029e87   Thumb Code    16  stm32f2xx_i2c.o(.text)
    I2C_AcknowledgeConfig                    0x08029e97   Thumb Code    24  stm32f2xx_i2c.o(.text)
    I2C_OwnAddress2Config                    0x08029eaf   Thumb Code    22  stm32f2xx_i2c.o(.text)
    I2C_DualAddressCmd                       0x08029ec5   Thumb Code    24  stm32f2xx_i2c.o(.text)
    I2C_GeneralCallCmd                       0x08029edd   Thumb Code    24  stm32f2xx_i2c.o(.text)
    I2C_SoftwareResetCmd                     0x08029ef5   Thumb Code    22  stm32f2xx_i2c.o(.text)
    I2C_StretchClockCmd                      0x08029f0b   Thumb Code    24  stm32f2xx_i2c.o(.text)
    I2C_FastModeDutyCycleConfig              0x08029f23   Thumb Code    28  stm32f2xx_i2c.o(.text)
    I2C_NACKPositionConfig                   0x08029f3f   Thumb Code    28  stm32f2xx_i2c.o(.text)
    I2C_SMBusAlertConfig                     0x08029f5b   Thumb Code    28  stm32f2xx_i2c.o(.text)
    I2C_ARPCmd                               0x08029f77   Thumb Code    24  stm32f2xx_i2c.o(.text)
    I2C_SendData                             0x08029f8f   Thumb Code     4  stm32f2xx_i2c.o(.text)
    I2C_ReceiveData                          0x08029f93   Thumb Code     8  stm32f2xx_i2c.o(.text)
    I2C_TransmitPEC                          0x08029f9b   Thumb Code    24  stm32f2xx_i2c.o(.text)
    I2C_PECPositionConfig                    0x08029fb3   Thumb Code    28  stm32f2xx_i2c.o(.text)
    I2C_CalculatePEC                         0x08029fcf   Thumb Code    24  stm32f2xx_i2c.o(.text)
    I2C_GetPEC                               0x08029fe7   Thumb Code     8  stm32f2xx_i2c.o(.text)
    I2C_DMACmd                               0x08029fef   Thumb Code    24  stm32f2xx_i2c.o(.text)
    I2C_DMALastTransferCmd                   0x0802a007   Thumb Code    24  stm32f2xx_i2c.o(.text)
    I2C_ReadRegister                         0x0802a01f   Thumb Code    22  stm32f2xx_i2c.o(.text)
    I2C_ITConfig                             0x0802a035   Thumb Code    18  stm32f2xx_i2c.o(.text)
    I2C_CheckEvent                           0x0802a047   Thumb Code    42  stm32f2xx_i2c.o(.text)
    I2C_GetLastEvent                         0x0802a071   Thumb Code    26  stm32f2xx_i2c.o(.text)
    I2C_GetFlagStatus                        0x0802a08b   Thumb Code    58  stm32f2xx_i2c.o(.text)
    I2C_ClearFlag                            0x0802a0c5   Thumb Code    12  stm32f2xx_i2c.o(.text)
    I2C_GetITStatus                          0x0802a0d1   Thumb Code    64  stm32f2xx_i2c.o(.text)
    I2C_ClearITPendingBit                    0x0802a111   Thumb Code    12  stm32f2xx_i2c.o(.text)
    RCC_DeInit                               0x0802a11d   Thumb Code    60  stm32f2xx_rcc.o(.text)
    RCC_HSEConfig                            0x0802a159   Thumb Code    14  stm32f2xx_rcc.o(.text)
    RCC_GetFlagStatus                        0x0802a167   Thumb Code    60  stm32f2xx_rcc.o(.text)
    RCC_WaitForHSEStartUp                    0x0802a1a3   Thumb Code    56  stm32f2xx_rcc.o(.text)
    RCC_AdjustHSICalibrationValue            0x0802a1db   Thumb Code    20  stm32f2xx_rcc.o(.text)
    RCC_HSICmd                               0x0802a1ef   Thumb Code     6  stm32f2xx_rcc.o(.text)
    RCC_LSEConfig                            0x0802a1f5   Thumb Code    46  stm32f2xx_rcc.o(.text)
    RCC_LSICmd                               0x0802a223   Thumb Code     6  stm32f2xx_rcc.o(.text)
    RCC_PLLConfig                            0x0802a229   Thumb Code    32  stm32f2xx_rcc.o(.text)
    RCC_PLLCmd                               0x0802a249   Thumb Code     6  stm32f2xx_rcc.o(.text)
    RCC_PLLI2SConfig                         0x0802a24f   Thumb Code    14  stm32f2xx_rcc.o(.text)
    RCC_PLLI2SCmd                            0x0802a25d   Thumb Code     6  stm32f2xx_rcc.o(.text)
    RCC_ClockSecuritySystemCmd               0x0802a263   Thumb Code     6  stm32f2xx_rcc.o(.text)
    RCC_MCO1Config                           0x0802a269   Thumb Code    28  stm32f2xx_rcc.o(.text)
    RCC_MCO2Config                           0x0802a285   Thumb Code    28  stm32f2xx_rcc.o(.text)
    RCC_SYSCLKConfig                         0x0802a2a1   Thumb Code    20  stm32f2xx_rcc.o(.text)
    RCC_GetSYSCLKSource                      0x0802a2b5   Thumb Code    12  stm32f2xx_rcc.o(.text)
    RCC_HCLKConfig                           0x0802a2c1   Thumb Code    20  stm32f2xx_rcc.o(.text)
    RCC_PCLK1Config                          0x0802a2d5   Thumb Code    20  stm32f2xx_rcc.o(.text)
    RCC_PCLK2Config                          0x0802a2e9   Thumb Code    22  stm32f2xx_rcc.o(.text)
    RCC_GetClocksFreq                        0x0802a2ff   Thumb Code   222  stm32f2xx_rcc.o(.text)
    RCC_RTCCLKConfig                         0x0802a3dd   Thumb Code    54  stm32f2xx_rcc.o(.text)
    RCC_RTCCLKCmd                            0x0802a413   Thumb Code     8  stm32f2xx_rcc.o(.text)
    RCC_BackupResetCmd                       0x0802a41b   Thumb Code     8  stm32f2xx_rcc.o(.text)
    RCC_I2SCLKConfig                         0x0802a423   Thumb Code     6  stm32f2xx_rcc.o(.text)
    RCC_AHB1PeriphClockCmd                   0x0802a429   Thumb Code    34  stm32f2xx_rcc.o(.text)
    RCC_AHB2PeriphClockCmd                   0x0802a44b   Thumb Code    34  stm32f2xx_rcc.o(.text)
    RCC_AHB3PeriphClockCmd                   0x0802a46d   Thumb Code    34  stm32f2xx_rcc.o(.text)
    RCC_APB1PeriphClockCmd                   0x0802a48f   Thumb Code    34  stm32f2xx_rcc.o(.text)
    RCC_APB2PeriphClockCmd                   0x0802a4b1   Thumb Code    34  stm32f2xx_rcc.o(.text)
    RCC_AHB1PeriphResetCmd                   0x0802a4d3   Thumb Code    34  stm32f2xx_rcc.o(.text)
    RCC_AHB2PeriphResetCmd                   0x0802a4f5   Thumb Code    72  stm32f2xx_rcc.o(.text)
    RCC_AHB3PeriphResetCmd                   0x0802a53d   Thumb Code    34  stm32f2xx_rcc.o(.text)
    RCC_APB1PeriphResetCmd                   0x0802a55f   Thumb Code    34  stm32f2xx_rcc.o(.text)
    RCC_APB2PeriphResetCmd                   0x0802a581   Thumb Code    34  stm32f2xx_rcc.o(.text)
    RCC_AHB1PeriphClockLPModeCmd             0x0802a5a3   Thumb Code    34  stm32f2xx_rcc.o(.text)
    RCC_AHB2PeriphClockLPModeCmd             0x0802a5c5   Thumb Code    34  stm32f2xx_rcc.o(.text)
    RCC_AHB3PeriphClockLPModeCmd             0x0802a5e7   Thumb Code    34  stm32f2xx_rcc.o(.text)
    RCC_APB1PeriphClockLPModeCmd             0x0802a609   Thumb Code    34  stm32f2xx_rcc.o(.text)
    RCC_APB2PeriphClockLPModeCmd             0x0802a62b   Thumb Code    34  stm32f2xx_rcc.o(.text)
    RCC_ITConfig                             0x0802a64d   Thumb Code    34  stm32f2xx_rcc.o(.text)
    RCC_ClearFlag                            0x0802a66f   Thumb Code    18  stm32f2xx_rcc.o(.text)
    RCC_GetITStatus                          0x0802a681   Thumb Code    22  stm32f2xx_rcc.o(.text)
    RCC_ClearITPendingBit                    0x0802a697   Thumb Code     8  stm32f2xx_rcc.o(.text)
    RNG_DeInit                               0x0802a6a5   Thumb Code    20  stm32f2xx_rng.o(.text)
    RNG_Cmd                                  0x0802a6b9   Thumb Code    30  stm32f2xx_rng.o(.text)
    RNG_GetRandomNumber                      0x0802a6d7   Thumb Code     8  stm32f2xx_rng.o(.text)
    RNG_ITConfig                             0x0802a6df   Thumb Code    30  stm32f2xx_rng.o(.text)
    RNG_GetFlagStatus                        0x0802a6fd   Thumb Code    22  stm32f2xx_rng.o(.text)
    RNG_ClearFlag                            0x0802a713   Thumb Code    12  stm32f2xx_rng.o(.text)
    RNG_GetITStatus                          0x0802a71f   Thumb Code    22  stm32f2xx_rng.o(.text)
    RNG_ClearITPendingBit                    0x0802a735   Thumb Code    12  stm32f2xx_rng.o(.text)
    SDIO_DeInit                              0x0802a745   Thumb Code    22  stm32f2xx_sdio.o(.text)
    SDIO_Init                                0x0802a75b   Thumb Code    42  stm32f2xx_sdio.o(.text)
    SDIO_StructInit                          0x0802a785   Thumb Code    16  stm32f2xx_sdio.o(.text)
    SDIO_ClockCmd                            0x0802a795   Thumb Code     6  stm32f2xx_sdio.o(.text)
    SDIO_SetPowerState                       0x0802a79b   Thumb Code     8  stm32f2xx_sdio.o(.text)
    SDIO_GetPowerState                       0x0802a7a3   Thumb Code    12  stm32f2xx_sdio.o(.text)
    SDIO_SendCommand                         0x0802a7af   Thumb Code    42  stm32f2xx_sdio.o(.text)
    SDIO_CmdStructInit                       0x0802a7d9   Thumb Code    14  stm32f2xx_sdio.o(.text)
    SDIO_GetCommandResponse                  0x0802a7e7   Thumb Code    10  stm32f2xx_sdio.o(.text)
    SDIO_GetResponse                         0x0802a7f1   Thumb Code    22  stm32f2xx_sdio.o(.text)
    SDIO_DataConfig                          0x0802a807   Thumb Code    48  stm32f2xx_sdio.o(.text)
    SDIO_DataStructInit                      0x0802a837   Thumb Code    20  stm32f2xx_sdio.o(.text)
    SDIO_GetDataCounter                      0x0802a84b   Thumb Code     8  stm32f2xx_sdio.o(.text)
    SDIO_ReadData                            0x0802a853   Thumb Code     8  stm32f2xx_sdio.o(.text)
    SDIO_WriteData                           0x0802a85b   Thumb Code     8  stm32f2xx_sdio.o(.text)
    SDIO_GetFIFOCount                        0x0802a863   Thumb Code     8  stm32f2xx_sdio.o(.text)
    SDIO_StartSDIOReadWait                   0x0802a86b   Thumb Code     6  stm32f2xx_sdio.o(.text)
    SDIO_StopSDIOReadWait                    0x0802a871   Thumb Code     8  stm32f2xx_sdio.o(.text)
    SDIO_SetSDIOReadWaitMode                 0x0802a879   Thumb Code     8  stm32f2xx_sdio.o(.text)
    SDIO_SetSDIOOperation                    0x0802a881   Thumb Code     8  stm32f2xx_sdio.o(.text)
    SDIO_SendSDIOSuspendCmd                  0x0802a889   Thumb Code     6  stm32f2xx_sdio.o(.text)
    SDIO_CommandCompletionCmd                0x0802a88f   Thumb Code     8  stm32f2xx_sdio.o(.text)
    SDIO_CEATAITCmd                          0x0802a897   Thumb Code    12  stm32f2xx_sdio.o(.text)
    SDIO_SendCEATACmd                        0x0802a8a3   Thumb Code     8  stm32f2xx_sdio.o(.text)
    SDIO_DMACmd                              0x0802a8ab   Thumb Code     8  stm32f2xx_sdio.o(.text)
    SDIO_ITConfig                            0x0802a8b3   Thumb Code    34  stm32f2xx_sdio.o(.text)
    SDIO_GetFlagStatus                       0x0802a8d5   Thumb Code    22  stm32f2xx_sdio.o(.text)
    SDIO_ClearFlag                           0x0802a8eb   Thumb Code     8  stm32f2xx_sdio.o(.text)
    SDIO_GetITStatus                         0x0802a8f3   Thumb Code    22  stm32f2xx_sdio.o(.text)
    SDIO_ClearITPendingBit                   0x0802a909   Thumb Code     8  stm32f2xx_sdio.o(.text)
    SYSCFG_DeInit                            0x0802a921   Thumb Code    22  stm32f2xx_syscfg.o(.text)
    SYSCFG_MemoryRemapConfig                 0x0802a937   Thumb Code     6  stm32f2xx_syscfg.o(.text)
    SYSCFG_EXTILineConfig                    0x0802a93d   Thumb Code    66  stm32f2xx_syscfg.o(.text)
    SYSCFG_ETH_MediaInterfaceConfig          0x0802a97f   Thumb Code     6  stm32f2xx_syscfg.o(.text)
    SYSCFG_CompensationCellCmd               0x0802a985   Thumb Code     6  stm32f2xx_syscfg.o(.text)
    SYSCFG_GetCompensationCellStatus         0x0802a98b   Thumb Code    22  stm32f2xx_syscfg.o(.text)
    USART_DeInit                             0x0802a9ad   Thumb Code   156  stm32f2xx_usart.o(.text)
    USART_Init                               0x0802aa49   Thumb Code   204  stm32f2xx_usart.o(.text)
    USART_StructInit                         0x0802ab15   Thumb Code    24  stm32f2xx_usart.o(.text)
    USART_ClockInit                          0x0802ab2d   Thumb Code    32  stm32f2xx_usart.o(.text)
    USART_ClockStructInit                    0x0802ab4d   Thumb Code    12  stm32f2xx_usart.o(.text)
    USART_Cmd                                0x0802ab59   Thumb Code    24  stm32f2xx_usart.o(.text)
    USART_SetPrescaler                       0x0802ab71   Thumb Code    16  stm32f2xx_usart.o(.text)
    USART_OverSampling8Cmd                   0x0802ab81   Thumb Code    22  stm32f2xx_usart.o(.text)
    USART_OneBitMethodCmd                    0x0802ab97   Thumb Code    24  stm32f2xx_usart.o(.text)
    USART_SendData                           0x0802abaf   Thumb Code     8  stm32f2xx_usart.o(.text)
    USART_ReceiveData                        0x0802abb7   Thumb Code    10  stm32f2xx_usart.o(.text)
    USART_SetAddress                         0x0802abc1   Thumb Code    18  stm32f2xx_usart.o(.text)
    USART_ReceiverWakeUpCmd                  0x0802abd3   Thumb Code    24  stm32f2xx_usart.o(.text)
    USART_WakeUpConfig                       0x0802abeb   Thumb Code    18  stm32f2xx_usart.o(.text)
    USART_LINBreakDetectLengthConfig         0x0802abfd   Thumb Code    18  stm32f2xx_usart.o(.text)
    USART_LINCmd                             0x0802ac0f   Thumb Code    24  stm32f2xx_usart.o(.text)
    USART_SendBreak                          0x0802ac27   Thumb Code    10  stm32f2xx_usart.o(.text)
    USART_HalfDuplexCmd                      0x0802ac31   Thumb Code    24  stm32f2xx_usart.o(.text)
    USART_SetGuardTime                       0x0802ac49   Thumb Code    16  stm32f2xx_usart.o(.text)
    USART_SmartCardCmd                       0x0802ac59   Thumb Code    24  stm32f2xx_usart.o(.text)
    USART_SmartCardNACKCmd                   0x0802ac71   Thumb Code    24  stm32f2xx_usart.o(.text)
    USART_IrDAConfig                         0x0802ac89   Thumb Code    18  stm32f2xx_usart.o(.text)
    USART_IrDACmd                            0x0802ac9b   Thumb Code    24  stm32f2xx_usart.o(.text)
    USART_DMACmd                             0x0802acb3   Thumb Code    18  stm32f2xx_usart.o(.text)
    USART_ITConfig                           0x0802acc5   Thumb Code    74  stm32f2xx_usart.o(.text)
    USART_GetFlagStatus                      0x0802ad0f   Thumb Code    26  stm32f2xx_usart.o(.text)
    USART_ClearFlag                          0x0802ad29   Thumb Code    18  stm32f2xx_usart.o(.text)
    USART_GetITStatus                        0x0802ad3b   Thumb Code   110  stm32f2xx_usart.o(.text)
    USART_ClearITPendingBit                  0x0802ada9   Thumb Code    30  stm32f2xx_usart.o(.text)
    __I$use$semihosting                      0x0802adc7   Thumb Code     0  use_no_semi.o(.text)
    __use_no_semihosting_swi                 0x0802adc7   Thumb Code     2  use_no_semi.o(.text)
    __rt_ctype_table                         0x0802adc9   Thumb Code    16  rt_ctype_table.o(.text)
    malloc                                   0x0802add9   Thumb Code    94  h1_alloc.o(.text)
    free                                     0x0802ae37   Thumb Code    78  h1_free.o(.text)
    tolower                                  0x0802ae85   Thumb Code    26  tolower.o(.text)
    toupper                                  0x0802ae9f   Thumb Code    30  toupper.o(.text)
    __2printf                                0x0802aebd   Thumb Code    20  __2printf.o(.text)
    __2fprintf                               0x0802aed5   Thumb Code    20  __2fprintf.o(.text)
    __2sprintf                               0x0802aee9   Thumb Code    38  __2sprintf.o(.text)
    _printf_pre_padding                      0x0802af15   Thumb Code    44  _printf_pad.o(.text)
    _printf_post_padding                     0x0802af41   Thumb Code    34  _printf_pad.o(.text)
    _printf_str                              0x0802af63   Thumb Code    82  _printf_str.o(.text)
    _printf_int_dec                          0x0802afb5   Thumb Code   104  _printf_dec.o(.text)
    _printf_int_hex                          0x0802b02d   Thumb Code    84  _printf_hex_int.o(.text)
    _printf_longlong_hex                     0x0802b02d   Thumb Code     0  _printf_hex_int.o(.text)
    __printf                                 0x0802b085   Thumb Code   308  __printf_flags_wp.o(.text)
    atoi                                     0x0802b1bd   Thumb Code    26  atoi.o(.text)
    strtoul                                  0x0802b1d7   Thumb Code   114  strtoul.o(.text)
    _strtok_r                                0x0802b249   Thumb Code     4  strtok_r.o(.text)
    strtok_r                                 0x0802b249   Thumb Code     0  strtok_r.o(.text)
    strchr                                   0x0802b24d   Thumb Code    20  strchr.o(.text)
    memcmp                                   0x0802b261   Thumb Code    88  memcmp.o(.text)
    strcpy                                   0x0802b2b9   Thumb Code    72  strcpy.o(.text)
    strncasecmp                              0x0802b301   Thumb Code    50  strncasecmp.o(.text)
    strcasecmp                               0x0802b333   Thumb Code    42  strcasecmp.o(.text)
    strrchr                                  0x0802b35d   Thumb Code    22  strrchr.o(.text)
    strlen                                   0x0802b373   Thumb Code    62  strlen.o(.text)
    strncmp                                  0x0802b3b1   Thumb Code   150  strncmp.o(.text)
    strcat                                   0x0802b447   Thumb Code    24  strcat.o(.text)
    __aeabi_memcpy                           0x0802b45f   Thumb Code     0  rt_memcpy_v6.o(.text)
    __rt_memcpy                              0x0802b45f   Thumb Code   138  rt_memcpy_v6.o(.text)
    _memcpy_lastbytes                        0x0802b4c5   Thumb Code     0  rt_memcpy_v6.o(.text)
    __aeabi_memmove                          0x0802b4e9   Thumb Code     0  rt_memmove_v6.o(.text)
    __rt_memmove                             0x0802b4e9   Thumb Code   132  rt_memmove_v6.o(.text)
    __memmove_lastfew                        0x0802b549   Thumb Code     0  rt_memmove_v6.o(.text)
    __aeabi_memcpy4                          0x0802b56d   Thumb Code     0  rt_memcpy_w.o(.text)
    __aeabi_memcpy8                          0x0802b56d   Thumb Code     0  rt_memcpy_w.o(.text)
    __rt_memcpy_w                            0x0802b56d   Thumb Code   100  rt_memcpy_w.o(.text)
    _memcpy_lastbytes_aligned                0x0802b5b5   Thumb Code     0  rt_memcpy_w.o(.text)
    __aeabi_memset                           0x0802b5d1   Thumb Code    16  aeabi_memset.o(.text)
    __aeabi_memclr                           0x0802b5e1   Thumb Code     0  rt_memclr.o(.text)
    __rt_memclr                              0x0802b5e1   Thumb Code    68  rt_memclr.o(.text)
    _memset                                  0x0802b5e5   Thumb Code     0  rt_memclr.o(.text)
    __aeabi_memclr4                          0x0802b625   Thumb Code     0  rt_memclr_w.o(.text)
    __aeabi_memclr8                          0x0802b625   Thumb Code     0  rt_memclr_w.o(.text)
    __rt_memclr_w                            0x0802b625   Thumb Code    78  rt_memclr_w.o(.text)
    _memset_w                                0x0802b629   Thumb Code     0  rt_memclr_w.o(.text)
    strncpy                                  0x0802b673   Thumb Code    86  strncpy.o(.text)
    strcmp                                   0x0802b6c9   Thumb Code   128  strcmpv7m.o(.text)
    __rt_heap_descriptor                     0x0802b749   Thumb Code     8  rt_heap_descriptor_intlibspace.o(.text)
    __rt_locale                              0x0802b751   Thumb Code     8  rt_locale_intlibspace.o(.text)
    __aeabi_errno_addr                       0x0802b759   Thumb Code     8  rt_errno_addr_intlibspace.o(.text)
    __errno$intlibspace                      0x0802b759   Thumb Code     0  rt_errno_addr_intlibspace.o(.text)
    __rt_errno_addr$intlibspace              0x0802b759   Thumb Code     0  rt_errno_addr_intlibspace.o(.text)
    __use_no_heap                            0x0802b761   Thumb Code     2  hguard.o(.text)
    __heap$guard                             0x0802b763   Thumb Code     2  hguard.o(.text)
    _terminate_user_alloc                    0x0802b765   Thumb Code     2  init_alloc.o(.text)
    _init_user_alloc                         0x0802b767   Thumb Code     2  init_alloc.o(.text)
    __Heap_Full                              0x0802b769   Thumb Code    34  init_alloc.o(.text)
    __Heap_Broken                            0x0802b78b   Thumb Code     6  init_alloc.o(.text)
    _init_alloc                              0x0802b791   Thumb Code    94  init_alloc.o(.text)
    __Heap_Initialize                        0x0802b7ef   Thumb Code    10  h1_init.o(.text)
    __Heap_DescSize                          0x0802b7f9   Thumb Code     4  h1_init.o(.text)
    _printf_int_common                       0x0802b7fd   Thumb Code   178  _printf_intcommon.o(.text)
    _printf_char_common                      0x0802b8bb   Thumb Code    32  _printf_char_common.o(.text)
    _sputc                                   0x0802b8e1   Thumb Code    10  _sputc.o(.text)
    _printf_cs_common                        0x0802b8eb   Thumb Code    20  _printf_char.o(.text)
    _printf_char                             0x0802b8ff   Thumb Code    16  _printf_char.o(.text)
    _printf_string                           0x0802b90f   Thumb Code     8  _printf_char.o(.text)
    _printf_char_file                        0x0802b919   Thumb Code    32  _printf_char_file.o(.text)
    _strtoul                                 0x0802b93d   Thumb Code   158  _strtoul.o(.text)
    strtol                                   0x0802b9db   Thumb Code   112  strtol.o(.text)
    __strtok_internal                        0x0802ba4d   Thumb Code    64  strtok_int.o(.text)
    __aeabi_memmove4                         0x0802ba91   Thumb Code     0  rt_memmove_w.o(.text)
    __aeabi_memmove8                         0x0802ba91   Thumb Code     0  rt_memmove_w.o(.text)
    __rt_memmove_w                           0x0802ba91   Thumb Code   122  rt_memmove_w.o(.text)
    __memmove_aligned                        0x0802bab7   Thumb Code     0  rt_memmove_w.o(.text)
    __memmove_lastfew_aligned                0x0802baef   Thumb Code     0  rt_memmove_w.o(.text)
    __Heap_ProvideMemory                     0x0802bb0b   Thumb Code    52  h1_extend.o(.text)
    _chval                                   0x0802bb3f   Thumb Code    28  _chval.o(.text)
    __rt_SIGRTMEM                            0x0802bb5b   Thumb Code    14  defsig_rtmem_outer.o(.text)
    strcspn                                  0x0802bb69   Thumb Code    32  strcspn.o(.text)
    strspn                                   0x0802bb89   Thumb Code    28  strspn.o(.text)
    exit                                     0x0802bba5   Thumb Code    18  exit.o(.text)
    __sig_exit                               0x0802bbb7   Thumb Code    10  defsig_exit.o(.text)
    __rt_SIGRTMEM_inner                      0x0802bbc1   Thumb Code    22  defsig_rtmem_inner.o(.text)
    __default_signal_display                 0x0802bc11   Thumb Code    50  defsig_general.o(.text)
    _is_digit                                0x0802bc43   Thumb Code    14  __printf_wp.o(i._is_digit)
    _get_lc_ctype                            0x0802bc51   Thumb Code    44  lc_ctype_c.o(locale$$code)
    __fpl_dcmp_Inf                           0x0802bc7d   Thumb Code    24  dcmpi.o(x$fpl$dcmpinf)
    __aeabi_i2d                              0x0802bc95   Thumb Code     0  dflt_clz.o(x$fpl$dflt)
    _dflt                                    0x0802bc95   Thumb Code    46  dflt_clz.o(x$fpl$dflt)
    __aeabi_ui2d                             0x0802bcc3   Thumb Code     0  dflt_clz.o(x$fpl$dfltu)
    _dfltu                                   0x0802bcc3   Thumb Code    38  dflt_clz.o(x$fpl$dfltu)
    __aeabi_cdcmple                          0x0802bce9   Thumb Code     0  dleqf.o(x$fpl$dleqf)
    _dcmple                                  0x0802bce9   Thumb Code   120  dleqf.o(x$fpl$dleqf)
    __fpl_dcmple_InfNaN                      0x0802bd4b   Thumb Code     0  dleqf.o(x$fpl$dleqf)
    __fpl_dnaninf                            0x0802bd61   Thumb Code   156  dnaninf.o(x$fpl$dnaninf)
    __aeabi_cdrcmple                         0x0802bdfd   Thumb Code     0  drleqf.o(x$fpl$drleqf)
    _drcmple                                 0x0802bdfd   Thumb Code   108  drleqf.o(x$fpl$drleqf)
    __I$use$fp                               0x0802be68   Number         0  usenofp.o(x$fpl$usenofp)
    res                                      0x0802be68   Data       200548  res.o(.constdata)
    extIntDriver                             0x0805cdcc   Data          12  ext_int_driver.o(.constdata)
    stm32f2x7EthDriver                       0x0805ceac   Data          64  stm32f2x7_eth.o(.constdata)
    dp83848PhyDriver                         0x0805ceec   Data          20  dp83848.o(.constdata)
    MAC_UNSPECIFIED_ADDR                     0x0805cf00   Data           6  ethernet.o(.constdata)
    MAC_BROADCAST_ADDR                       0x0805cf06   Data           6  ethernet.o(.constdata)
    EUI64_UNSPECIFIED_ADDR                   0x0805cf0c   Data           8  ethernet.o(.constdata)
    ethPadding                               0x0805cf14   Data          64  ethernet.o(.constdata)
    IPV6_UNSPECIFIED_ADDR                    0x0805cf54   Data          16  ipv6.o(.constdata)
    IPV6_LOOPBACK_ADDR                       0x0805cf64   Data          16  ipv6.o(.constdata)
    IPV6_LINK_LOCAL_ALL_NODES_ADDR           0x0805cf74   Data          16  ipv6.o(.constdata)
    IPV6_LINK_LOCAL_ALL_ROUTERS_ADDR         0x0805cf84   Data          16  ipv6.o(.constdata)
    IPV6_LINK_LOCAL_ADDR_PREFIX              0x0805cf94   Data          16  ipv6.o(.constdata)
    IPV6_SOLICITED_NODE_ADDR_PREFIX          0x0805cfa4   Data          16  ipv6.o(.constdata)
    IP_ADDR_ANY                              0x0805cfb4   Data          20  ip.o(.constdata)
    IP_ADDR_UNSPECIFIED                      0x0805cfc8   Data          20  ip.o(.constdata)
    dhcpOptionList                           0x0805cfdc   Data           7  dhcp_client.o(.constdata)
    tlsSupportedCipherSuites                 0x0805d47c   Data        2772  tls_cipher_suites.o(.constdata)
    sslPad1                                  0x0805df58   Data          48  ssl_common.o(.constdata)
    sslPad2                                  0x0805df88   Data          48  ssl_common.o(.constdata)
    md5HashAlgo                              0x0805e1c0   Data          40  md5.o(.constdata)
    sha1HashAlgo                             0x0805e240   Data          40  sha1.o(.constdata)
    sha224HashAlgo                           0x0805e274   Data          40  sha224.o(.constdata)
    sha256HashAlgo                           0x0805e3e8   Data          40  sha256.o(.constdata)
    sha384HashAlgo                           0x0805e41c   Data          40  sha384.o(.constdata)
    sha512HashAlgo                           0x0805e754   Data          40  sha512.o(.constdata)
    rc4CipherAlgo                            0x0805e77c   Data          36  rc4.o(.constdata)
    desCipherAlgo                            0x0805efa0   Data          36  des.o(.constdata)
    des3CipherAlgo                           0x0805efc4   Data          36  des3.o(.constdata)
    aesCipherAlgo                            0x0805fa14   Data          36  aes.o(.constdata)
    camelliaCipherAlgo                       0x0805ff58   Data          36  camellia.o(.constdata)
    PKCS1_OID                                0x0805ff7c   Data           8  rsa.o(.constdata)
    RSA_ENCRYPTION_OID                       0x0805ff84   Data           9  rsa.o(.constdata)
    MD5_WITH_RSA_ENCRYPTION_OID              0x0805ff8d   Data           9  rsa.o(.constdata)
    SHA1_WITH_RSA_ENCRYPTION_OID             0x0805ff96   Data           9  rsa.o(.constdata)
    SHA256_WITH_RSA_ENCRYPTION_OID           0x0805ff9f   Data           9  rsa.o(.constdata)
    SHA384_WITH_RSA_ENCRYPTION_OID           0x0805ffa8   Data           9  rsa.o(.constdata)
    SHA512_WITH_RSA_ENCRYPTION_OID           0x0805ffb1   Data           9  rsa.o(.constdata)
    RSASSA_PKCS1_v1_5_WITH_SHA3_224_OID      0x0805ffba   Data           9  rsa.o(.constdata)
    RSASSA_PKCS1_v1_5_WITH_SHA3_256_OID      0x0805ffc3   Data           9  rsa.o(.constdata)
    RSASSA_PKCS1_v1_5_WITH_SHA3_384_OID      0x0805ffcc   Data           9  rsa.o(.constdata)
    RSASSA_PKCS1_v1_5_WITH_SHA3_512_OID      0x0805ffd5   Data           9  rsa.o(.constdata)
    DSA_OID                                  0x0805ffde   Data           7  dsa.o(.constdata)
    DSA_WITH_SHA1_OID                        0x0805ffe5   Data           7  dsa.o(.constdata)
    DSA_WITH_SHA224_OID                      0x0805ffec   Data           9  dsa.o(.constdata)
    DSA_WITH_SHA256_OID                      0x0805fff5   Data           9  dsa.o(.constdata)
    DSA_WITH_SHA384_OID                      0x0805fffe   Data           9  dsa.o(.constdata)
    DSA_WITH_SHA512_OID                      0x08060007   Data           9  dsa.o(.constdata)
    DSA_WITH_SHA3_224_OID                    0x08060010   Data           9  dsa.o(.constdata)
    DSA_WITH_SHA3_256_OID                    0x08060019   Data           9  dsa.o(.constdata)
    DSA_WITH_SHA3_384_OID                    0x08060022   Data           9  dsa.o(.constdata)
    DSA_WITH_SHA3_512_OID                    0x0806002b   Data           9  dsa.o(.constdata)
    EC_PUBLIC_KEY_OID                        0x08060034   Data           7  ec.o(.constdata)
    SECP112R1_OID                            0x0806003c   Data           5  ec_curves.o(.constdata)
    SECP112R2_OID                            0x08060041   Data           5  ec_curves.o(.constdata)
    SECP128R1_OID                            0x08060046   Data           5  ec_curves.o(.constdata)
    SECP128R2_OID                            0x0806004b   Data           5  ec_curves.o(.constdata)
    SECP160K1_OID                            0x08060050   Data           5  ec_curves.o(.constdata)
    SECP160R1_OID                            0x08060055   Data           5  ec_curves.o(.constdata)
    SECP160R2_OID                            0x0806005a   Data           5  ec_curves.o(.constdata)
    SECP192K1_OID                            0x0806005f   Data           5  ec_curves.o(.constdata)
    SECP192R1_OID                            0x08060064   Data           8  ec_curves.o(.constdata)
    SECP224K1_OID                            0x0806006c   Data           5  ec_curves.o(.constdata)
    SECP224R1_OID                            0x08060071   Data           5  ec_curves.o(.constdata)
    SECP256K1_OID                            0x08060076   Data           5  ec_curves.o(.constdata)
    SECP256R1_OID                            0x0806007b   Data           8  ec_curves.o(.constdata)
    SECP384R1_OID                            0x08060083   Data           5  ec_curves.o(.constdata)
    SECP521R1_OID                            0x08060088   Data           5  ec_curves.o(.constdata)
    BRAINPOOLP160R1_OID                      0x0806008d   Data          10  ec_curves.o(.constdata)
    BRAINPOOLP192R1_OID                      0x08060097   Data          10  ec_curves.o(.constdata)
    BRAINPOOLP224R1_OID                      0x080600a1   Data          10  ec_curves.o(.constdata)
    BRAINPOOLP256R1_OID                      0x080600ab   Data          10  ec_curves.o(.constdata)
    BRAINPOOLP320R1_OID                      0x080600b5   Data          10  ec_curves.o(.constdata)
    BRAINPOOLP384R1_OID                      0x080600bf   Data          10  ec_curves.o(.constdata)
    BRAINPOOLP512R1_OID                      0x080600c9   Data          10  ec_curves.o(.constdata)
    secp112r1Curve                           0x080600d4   Data         452  ec_curves.o(.constdata)
    secp112r2Curve                           0x08060298   Data         452  ec_curves.o(.constdata)
    secp128r1Curve                           0x0806045c   Data         452  ec_curves.o(.constdata)
    secp128r2Curve                           0x08060620   Data         452  ec_curves.o(.constdata)
    secp160k1Curve                           0x080607e4   Data         452  ec_curves.o(.constdata)
    secp160r1Curve                           0x080609a8   Data         452  ec_curves.o(.constdata)
    secp160r2Curve                           0x08060b6c   Data         452  ec_curves.o(.constdata)
    secp192k1Curve                           0x08060d30   Data         452  ec_curves.o(.constdata)
    secp192r1Curve                           0x08060ef4   Data         452  ec_curves.o(.constdata)
    secp224k1Curve                           0x080610b8   Data         452  ec_curves.o(.constdata)
    secp224r1Curve                           0x0806127c   Data         452  ec_curves.o(.constdata)
    secp256k1Curve                           0x08061440   Data         452  ec_curves.o(.constdata)
    secp256r1Curve                           0x08061604   Data         452  ec_curves.o(.constdata)
    secp384r1Curve                           0x080617c8   Data         452  ec_curves.o(.constdata)
    secp521r1Curve                           0x0806198c   Data         452  ec_curves.o(.constdata)
    brainpoolP160r1Curve                     0x08061b50   Data         452  ec_curves.o(.constdata)
    brainpoolP192r1Curve                     0x08061d14   Data         452  ec_curves.o(.constdata)
    brainpoolP224r1Curve                     0x08061ed8   Data         452  ec_curves.o(.constdata)
    brainpoolP256r1Curve                     0x0806209c   Data         452  ec_curves.o(.constdata)
    brainpoolP320r1Curve                     0x08062260   Data         452  ec_curves.o(.constdata)
    brainpoolP384r1Curve                     0x08062424   Data         452  ec_curves.o(.constdata)
    brainpoolP512r1Curve                     0x080625e8   Data         452  ec_curves.o(.constdata)
    ECDSA_WITH_SHA1_OID                      0x080627ac   Data           7  ecdsa.o(.constdata)
    ECDSA_WITH_SHA224_OID                    0x080627b3   Data           8  ecdsa.o(.constdata)
    ECDSA_WITH_SHA256_OID                    0x080627bb   Data           8  ecdsa.o(.constdata)
    ECDSA_WITH_SHA384_OID                    0x080627c3   Data           8  ecdsa.o(.constdata)
    ECDSA_WITH_SHA512_OID                    0x080627cb   Data           8  ecdsa.o(.constdata)
    ECDSA_WITH_SHA3_224_OID                  0x080627d3   Data           9  ecdsa.o(.constdata)
    ECDSA_WITH_SHA3_256_OID                  0x080627dc   Data           9  ecdsa.o(.constdata)
    ECDSA_WITH_SHA3_384_OID                  0x080627e5   Data           9  ecdsa.o(.constdata)
    ECDSA_WITH_SHA3_512_OID                  0x080627ee   Data           9  ecdsa.o(.constdata)
    X509_COMMON_NAME_OID                     0x080627f7   Data           3  x509.o(.constdata)
    X509_SURNAME_OID                         0x080627fa   Data           3  x509.o(.constdata)
    X509_SERIAL_NUMBER_OID                   0x080627fd   Data           3  x509.o(.constdata)
    X509_COUNTRY_NAME_OID                    0x08062800   Data           3  x509.o(.constdata)
    X509_LOCALITY_NAME_OID                   0x08062803   Data           3  x509.o(.constdata)
    X509_STATE_OR_PROVINCE_NAME_OID          0x08062806   Data           3  x509.o(.constdata)
    X509_ORGANIZATION_NAME_OID               0x08062809   Data           3  x509.o(.constdata)
    X509_ORGANIZATIONAL_UNIT_NAME_OID        0x0806280c   Data           3  x509.o(.constdata)
    X509_TITLE_OID                           0x0806280f   Data           3  x509.o(.constdata)
    X509_NAME_OID                            0x08062812   Data           3  x509.o(.constdata)
    X509_GIVEN_NAME_OID                      0x08062815   Data           3  x509.o(.constdata)
    X509_INITIALS_OID                        0x08062818   Data           3  x509.o(.constdata)
    X509_GENERATION_QUALIFIER_OID            0x0806281b   Data           3  x509.o(.constdata)
    X509_DN_QUALIFIER_OID                    0x0806281e   Data           3  x509.o(.constdata)
    X509_PSEUDONYM_OID                       0x08062821   Data           3  x509.o(.constdata)
    X509_SUBJECT_DIRECTORY_ATTR_OID          0x08062824   Data           3  x509.o(.constdata)
    X509_SUBJECT_KEY_ID_OID                  0x08062827   Data           3  x509.o(.constdata)
    X509_KEY_USAGE_OID                       0x0806282a   Data           3  x509.o(.constdata)
    X509_SUBJECT_ALT_NAME_OID                0x0806282d   Data           3  x509.o(.constdata)
    X509_ISSUER_ALT_NAME_OID                 0x08062830   Data           3  x509.o(.constdata)
    X509_BASIC_CONSTRAINTS_OID               0x08062833   Data           3  x509.o(.constdata)
    X509_NAME_CONSTRAINTS_OID                0x08062836   Data           3  x509.o(.constdata)
    X509_CRL_DISTR_POINTS_OID                0x08062839   Data           3  x509.o(.constdata)
    X509_CERTIFICATE_POLICIES_OID            0x0806283c   Data           3  x509.o(.constdata)
    X509_POLICY_MAPPINGS_OID                 0x0806283f   Data           3  x509.o(.constdata)
    X509_AUTHORITY_KEY_ID_OID                0x08062842   Data           3  x509.o(.constdata)
    X509_POLICY_CONSTRAINTS_OID              0x08062845   Data           3  x509.o(.constdata)
    X509_EXTENDED_KEY_USAGE_OID              0x08062848   Data           3  x509.o(.constdata)
    X509_FRESHEST_CRL_OID                    0x0806284b   Data           3  x509.o(.constdata)
    X509_INHIBIT_ANY_POLICY_OID              0x0806284e   Data           3  x509.o(.constdata)
    yarrowPrngAlgo                           0x08062854   Data          28  yarrow.o(.constdata)
    GPIO_PIN                                 0x08062870   Data           8  stm322xg_eval.o(.constdata)
    GPIO_CLK                                 0x08062878   Data          16  stm322xg_eval.o(.constdata)
    BUTTON_PIN                               0x08062888   Data           6  stm322xg_eval.o(.constdata)
    BUTTON_CLK                               0x08062890   Data          12  stm322xg_eval.o(.constdata)
    BUTTON_EXTI_LINE                         0x0806289c   Data           6  stm322xg_eval.o(.constdata)
    BUTTON_PORT_SOURCE                       0x080628a2   Data           3  stm322xg_eval.o(.constdata)
    BUTTON_PIN_SOURCE                        0x080628a5   Data           3  stm322xg_eval.o(.constdata)
    BUTTON_IRQn                              0x080628a8   Data           3  stm322xg_eval.o(.constdata)
    COM_USART_CLK                            0x080628ac   Data           4  stm322xg_eval.o(.constdata)
    COM_TX_PORT_CLK                          0x080628b0   Data           4  stm322xg_eval.o(.constdata)
    COM_RX_PORT_CLK                          0x080628b4   Data           4  stm322xg_eval.o(.constdata)
    COM_TX_PIN                               0x080628b8   Data           2  stm322xg_eval.o(.constdata)
    COM_RX_PIN                               0x080628ba   Data           2  stm322xg_eval.o(.constdata)
    COM_TX_PIN_SOURCE                        0x080628bc   Data           1  stm322xg_eval.o(.constdata)
    COM_RX_PIN_SOURCE                        0x080628bd   Data           1  stm322xg_eval.o(.constdata)
    COM_TX_AF                                0x080628be   Data           1  stm322xg_eval.o(.constdata)
    COM_RX_AF                                0x080628bf   Data           1  stm322xg_eval.o(.constdata)
    ASCII16x24_Table                         0x080628c0   Data        4560  stm322xg_eval_lcd.o(.constdata)
    ASCII12x12_Table                         0x08063a90   Data        2304  stm322xg_eval_lcd.o(.constdata)
    ASCII8x12_Table                          0x08064390   Data        2304  stm322xg_eval_lcd.o(.constdata)
    ASCII8x8_Table                           0x08064c90   Data        1536  stm322xg_eval_lcd.o(.constdata)
    Region$$Table$$Base                      0x080663ec   Number         0  anon$$obj.o(Region$$Table)
    Region$$Table$$Limit                     0x0806640c   Number         0  anon$$obj.o(Region$$Table)
    __ctype                                  0x08066419   Data           0  lc_ctype_c.o(locale$$data)
    SystemCoreClock                          0x20000000   Data           4  system_stm32f2xx.o(.data)
    AHBPrescTable                            0x20000004   Data          16  system_stm32f2xx.o(.data)
    __stdout                                 0x20000014   Data           4  retarget.o(.data)
    __stdin                                  0x20000018   Data           4  retarget.o(.data)
    __stderr                                 0x2000001c   Data           4  retarget.o(.data)
    lcdLine                                  0x20000020   Data           4  main.o(.data)
    lcdColumn                                0x20000024   Data           4  main.o(.data)
    adcValue                                 0x20000028   Data           4  main.o(.data)
    joystickState                            0x2000002c   Data           4  main.o(.data)
    ax                                       0x20000030   Data           1  main.o(.data)
    ay                                       0x20000031   Data           1  main.o(.data)
    az                                       0x20000032   Data           1  main.o(.data)
    netTaskHandle                            0x20000038   Data           4  net.o(.data)
    netMutex                                 0x2000003c   Data           4  net.o(.data)
    netEvent                                 0x20000040   Data           4  net.o(.data)
    nicTickCounter                           0x20000060   Data           4  nic.o(.data)
    arpTickCounter                           0x20000064   Data           4  arp.o(.data)
    ipv4FragTickCounter                      0x20000068   Data           4  ipv4_frag.o(.data)
    igmpTickCounter                          0x2000006c   Data           4  igmp.o(.data)
    ipv6FragTickCounter                      0x20000070   Data           4  ipv6_frag.o(.data)
    mldTickCounter                           0x20000074   Data           4  mld.o(.data)
    ndpTickCounter                           0x20000078   Data           4  ndp.o(.data)
    tcpTickCounter                           0x20000080   Data           4  tcp.o(.data)
    udpCallbackMutex                         0x2000008c   Data           4  udp.o(.data)
    dnsTickCounter                           0x20000090   Data           4  dns_cache.o(.data)
    dhcpClientTickCounter                    0x20000094   Data           4  dhcp_client.o(.data)
    pxCurrentTCB                             0x200000d4   Data           4  tasks.o(.data)
    GPIO_PORT                                0x20000110   Data          16  stm322xg_eval.o(.data)
    BUTTON_PORT                              0x20000120   Data          12  stm322xg_eval.o(.data)
    COM_USART                                0x2000012c   Data           4  stm322xg_eval.o(.data)
    COM_TX_PORT                              0x20000130   Data           4  stm322xg_eval.o(.data)
    COM_RX_PORT                              0x20000134   Data           4  stm322xg_eval.o(.data)
    NVIC_InitStructure                       0x20000138   Data           4  stm322xg_eval.o(.data)
    TS_State                                 0x2000013c   Data           8  stm322xg_eval_ioe.o(.data)
    IOE_TimeOut                              0x20000144   Data           4  stm322xg_eval_ioe.o(.data)
    Font16x24                                0x20000150   Data           8  stm322xg_eval_lcd.o(.data)
    Font12x12                                0x20000158   Data           8  stm322xg_eval_lcd.o(.data)
    Font8x12                                 0x20000160   Data           8  stm322xg_eval_lcd.o(.data)
    Font8x8                                  0x20000168   Data           8  stm322xg_eval_lcd.o(.data)
    TextColor                                0x20000174   Data           2  stm322xg_eval_lcd.o(.data)
    BackColor                                0x20000176   Data           2  stm322xg_eval_lcd.o(.data)
    dhcpClientSettings                       0x20000188   Data          44  main.o(.bss)
    dhcpClientContext                        0x200001b4   Data         104  main.o(.bss)
    slaacSettings                            0x2000021c   Data          16  main.o(.bss)
    slaacContext                             0x2000022c   Data          24  main.o(.bss)
    httpServerSettings                       0x20000244   Data         100  main.o(.bss)
    httpServerContext                        0x200002a8   Data         116  main.o(.bss)
    httpConnections                          0x2000031c   Data        6880  main.o(.bss)
    yarrowContext                            0x20001e00   Data         816  main.o(.bss)
    seed                                     0x20002130   Data          32  main.o(.bss)
    netInterface                             0x20002190   Data        3052  net.o(.bss)
    udpCallbackTable                         0x20006548   Data         160  udp.o(.bss)
    socketTable                              0x200065e8   Data       18816  socket.o(.bss)
    dnsCache                                 0x2000af68   Data         928  dns_cache.o(.bss)
    sEEDMA_InitStructure                     0x2000b410   Data          60  stm322xg_eval.o(.bss)
    __libspace_start                         0x2000b44c   Data          96  libspace.o(.bss)
    __temporary_stack_top$libspace           0x2000b4ac   Data           0  libspace.o(.bss)
    Image$$ARM_LIB_STACK$$ZI$$Limit          0x20020000   Number         0  anon$$obj.o ABSOLUTE
    Image$$ARM_LIB_HEAP$$ZI$$Base            0x64100000   Number         0  anon$$obj.o ABSOLUTE
    Image$$ARM_LIB_HEAP$$ZI$$Limit           0x64200000   Number         0  anon$$obj.o ABSOLUTE



==============================================================================

Memory Map of the image

  Image Entry point : 0x08000185

  Load Region LR_IROM1 (Base: 0x08000000, Size: 0x000666a4, Max: 0x00100000, ABSOLUTE, COMPRESSED[0x000665a4])

    Execution Region ER_IROM1 (Base: 0x08000000, Size: 0x0006651c, Max: 0x00100000, ABSOLUTE)

    Base Addr    Size         Type   Attr      Idx    E Section Name        Object

    0x08000000   0x00000184   Data   RO            4    RESET               startup_stm32f2xx.o
    0x08000184   0x00000008   Code   RO         4489  * !!!main             c_w.l(__main.o)
    0x0800018c   0x00000034   Code   RO         4754    !!!scatter          c_w.l(__scatter.o)
    0x080001c0   0x0000005a   Code   RO         4752    !!dczerorl2         c_w.l(__dczerorl2.o)
    0x0800021a   0x00000002   PAD
    0x0800021c   0x0000001c   Code   RO         4756    !!handler_zi        c_w.l(__scatter_zi.o)
    0x08000238   0x00000000   Code   RO         4448    .ARM.Collect$$_printf_percent$$00000000  c_w.l(_printf_percent.o)
    0x08000238   0x00000006   Code   RO         4446    .ARM.Collect$$_printf_percent$$00000009  c_w.l(_printf_d.o)
    0x0800023e   0x00000006   Code   RO         4447    .ARM.Collect$$_printf_percent$$0000000A  c_w.l(_printf_u.o)
    0x08000244   0x00000006   Code   RO         4445    .ARM.Collect$$_printf_percent$$0000000C  c_w.l(_printf_x.o)
    0x0800024a   0x00000006   Code   RO         4444    .ARM.Collect$$_printf_percent$$00000014  c_w.l(_printf_s.o)
    0x08000250   0x00000004   Code   RO         4549    .ARM.Collect$$_printf_percent$$00000017  c_w.l(_printf_percent_end.o)
    0x08000254   0x00000002   Code   RO         4689    .ARM.Collect$$libinit$$00000000  c_w.l(libinit.o)
    0x08000256   0x00000000   Code   RO         4564    .ARM.Collect$$libinit$$00000002  c_w.l(libinit2.o)
    0x08000256   0x00000000   Code   RO         4566    .ARM.Collect$$libinit$$00000004  c_w.l(libinit2.o)
    0x08000256   0x00000008   Code   RO         4702    .ARM.Collect$$libinit$$00000008  c_w.l(libinit5.o)
    0x0800025e   0x00000000   Code   RO         4569    .ARM.Collect$$libinit$$0000000A  c_w.l(libinit2.o)
    0x0800025e   0x00000000   Code   RO         4571    .ARM.Collect$$libinit$$0000000C  c_w.l(libinit2.o)
    0x0800025e   0x00000000   Code   RO         4573    .ARM.Collect$$libinit$$0000000E  c_w.l(libinit2.o)
    0x0800025e   0x00000006   Code   RO         4574    .ARM.Collect$$libinit$$0000000F  c_w.l(libinit2.o)
    0x08000264   0x00000000   Code   RO         4576    .ARM.Collect$$libinit$$00000011  c_w.l(libinit2.o)
    0x08000264   0x0000000c   Code   RO         4577    .ARM.Collect$$libinit$$00000012  c_w.l(libinit2.o)
    0x08000270   0x00000000   Code   RO         4578    .ARM.Collect$$libinit$$00000013  c_w.l(libinit2.o)
    0x08000270   0x00000000   Code   RO         4580    .ARM.Collect$$libinit$$00000015  c_w.l(libinit2.o)
    0x08000270   0x00000000   Code   RO         4582    .ARM.Collect$$libinit$$00000017  c_w.l(libinit2.o)
    0x08000270   0x00000000   Code   RO         4584    .ARM.Collect$$libinit$$00000019  c_w.l(libinit2.o)
    0x08000270   0x00000000   Code   RO         4586    .ARM.Collect$$libinit$$0000001B  c_w.l(libinit2.o)
    0x08000270   0x00000000   Code   RO         4588    .ARM.Collect$$libinit$$0000001D  c_w.l(libinit2.o)
    0x08000270   0x00000000   Code   RO         4590    .ARM.Collect$$libinit$$0000001F  c_w.l(libinit2.o)
    0x08000270   0x00000000   Code   RO         4592    .ARM.Collect$$libinit$$00000021  c_w.l(libinit2.o)
    0x08000270   0x00000000   Code   RO         4594    .ARM.Collect$$libinit$$00000023  c_w.l(libinit2.o)
    0x08000270   0x00000000   Code   RO         4596    .ARM.Collect$$libinit$$00000025  c_w.l(libinit2.o)
    0x08000270   0x00000000   Code   RO         4600    .ARM.Collect$$libinit$$0000002C  c_w.l(libinit2.o)
    0x08000270   0x00000000   Code   RO         4602    .ARM.Collect$$libinit$$0000002E  c_w.l(libinit2.o)
    0x08000270   0x00000000   Code   RO         4604    .ARM.Collect$$libinit$$00000030  c_w.l(libinit2.o)
    0x08000270   0x00000000   Code   RO         4606    .ARM.Collect$$libinit$$00000032  c_w.l(libinit2.o)
    0x08000270   0x00000002   Code   RO         4607    .ARM.Collect$$libinit$$00000033  c_w.l(libinit2.o)
    0x08000272   0x00000002   PAD
    0x08000274   0x00000008   Code   RO         4703    .ARM.Collect$$libinit$$00002719  c_w.l(libinit5.o)
    0x0800027c   0x00000002   Code   RO         4749    .ARM.Collect$$libshutdown$$00000000  c_w.l(libshutdown.o)
    0x0800027e   0x00000000   Code   RO         4707    .ARM.Collect$$libshutdown$$00000002  c_w.l(libshutdown2.o)
    0x0800027e   0x00000000   Code   RO         4709    .ARM.Collect$$libshutdown$$00000004  c_w.l(libshutdown2.o)
    0x0800027e   0x00000000   Code   RO         4712    .ARM.Collect$$libshutdown$$00000007  c_w.l(libshutdown2.o)
    0x0800027e   0x00000000   Code   RO         4715    .ARM.Collect$$libshutdown$$0000000A  c_w.l(libshutdown2.o)
    0x0800027e   0x00000000   Code   RO         4717    .ARM.Collect$$libshutdown$$0000000C  c_w.l(libshutdown2.o)
    0x0800027e   0x00000000   Code   RO         4720    .ARM.Collect$$libshutdown$$0000000F  c_w.l(libshutdown2.o)
    0x0800027e   0x00000002   Code   RO         4721    .ARM.Collect$$libshutdown$$00000010  c_w.l(libshutdown2.o)
    0x08000280   0x00000000   Code   RO         4503    .ARM.Collect$$rtentry$$00000000  c_w.l(__rtentry.o)
    0x08000280   0x00000000   Code   RO         4619    .ARM.Collect$$rtentry$$00000002  c_w.l(__rtentry2.o)
    0x08000280   0x00000004   Code   RO         4633    .ARM.Collect$$rtentry$$00000007  c_w.l(__rtentry7.o)
    0x08000284   0x00000000   Code   RO         4621    .ARM.Collect$$rtentry$$00000009  c_w.l(__rtentry2.o)
    0x08000284   0x00000004   Code   RO         4622    .ARM.Collect$$rtentry$$0000000A  c_w.l(__rtentry2.o)
    0x08000288   0x00000000   Code   RO         4624    .ARM.Collect$$rtentry$$0000000C  c_w.l(__rtentry2.o)
    0x08000288   0x00000008   Code   RO         4625    .ARM.Collect$$rtentry$$0000000D  c_w.l(__rtentry2.o)
    0x08000290   0x00000004   Code   RO         4634    .ARM.Collect$$rtentry$$00002718  c_w.l(__rtentry7.o)
    0x08000294   0x00000002   Code   RO         4692    .ARM.Collect$$rtexit$$00000000  c_w.l(rtexit.o)
    0x08000296   0x00000000   Code   RO         4723    .ARM.Collect$$rtexit$$00000002  c_w.l(rtexit2.o)
    0x08000296   0x00000004   Code   RO         4724    .ARM.Collect$$rtexit$$00000003  c_w.l(rtexit2.o)
    0x0800029a   0x00000006   Code   RO         4725    .ARM.Collect$$rtexit$$00000004  c_w.l(rtexit2.o)
    0x080002a0   0x000000a2   Code   RO         3357    .emb_text           port.o
    0x08000342   0x00000002   PAD
    0x08000344   0x00000000   Code   RO         4640    .emb_text           c_w.l(maybetermalloc1.o)
    0x08000344   0x0000002c   Code   RO            5    .text               startup_stm32f2xx.o
    0x08000370   0x00000314   Code   RO           14    .text               system_stm32f2xx.o
    0x08000684   0x00000014   Code   RO          142    .text               stm32f2xx_it.o
    0x08000698   0x00000028   Code   RO          170    .text               retarget.o
    0x080006c0   0x00001214   Code   RO          198    .text               main.o
    0x080018d4   0x00000130   Code   RO          556    .text               debug.o
    0x08001a04   0x000000d4   Code   RO          597    .text               lis302dl.o
    0x08001ad8   0x00000154   Code   RO          635    .text               ext_int_driver.o
    0x08001c2c   0x00000248   Code   RO          772    .text               endian.o
    0x08001e74   0x0000023c   Code   RO          784    .text               os_port_freertos.o
    0x080020b0   0x00000348   Code   RO          805    .text               date_time.o
    0x080023f8   0x000000ee   Code   RO          826    .text               str.o
    0x080024e6   0x00000002   PAD
    0x080024e8   0x000003a8   Code   RO          842    .text               path.o
    0x08002890   0x0000024c   Code   RO          863    .text               resource_manager.o
    0x08002adc   0x00000960   Code   RO          880    .text               net.o
    0x0800343c   0x00000520   Code   RO          987    .text               net_mem.o
    0x0800395c   0x000007e4   Code   RO         1005    .text               stm32f2x7_eth.o
    0x08004140   0x000001a8   Code   RO         1038    .text               dp83848.o
    0x080042e8   0x00000304   Code   RO         1056    .text               nic.o
    0x080045ec   0x00000614   Code   RO         1139    .text               ethernet.o
    0x08004c00   0x0000071c   Code   RO         1238    .text               arp.o
    0x0800531c   0x000009d8   Code   RO         1355    .text               ipv4.o
    0x08005cf4   0x00000486   Code   RO         1445    .text               ipv4_frag.o
    0x0800617a   0x00000248   Code   RO         1540    .text               icmp.o
    0x080063c2   0x00000002   PAD
    0x080063c4   0x00000520   Code   RO         1552    .text               igmp.o
    0x080068e4   0x00001000   Code   RO         1570    .text               ipv6.o
    0x080078e4   0x00000572   Code   RO         1682    .text               ipv6_frag.o
    0x08007e56   0x00000002   PAD
    0x08007e58   0x000008e8   Code   RO         1775    .text               ipv6_misc.o
    0x08008740   0x00000044   Code   RO         1787    .text               ipv6_pmtu.o
    0x08008784   0x00000446   Code   RO         1799    .text               icmpv6.o
    0x08008bca   0x00000002   PAD
    0x08008bcc   0x000004bc   Code   RO         1815    .text               mld.o
    0x08009088   0x000012f4   Code   RO         1833    .text               ndp.o
    0x0800a37c   0x000002f0   Code   RO         1913    .text               ndp_cache.o
    0x0800a66c   0x000004b0   Code   RO         1925    .text               ndp_misc.o
    0x0800ab1c   0x0000065c   Code   RO         1937    .text               slaac.o
    0x0800b178   0x000003b4   Code   RO         1952    .text               ip.o
    0x0800b52c   0x00000824   Code   RO         1999    .text               tcp.o
    0x0800bd50   0x00000994   Code   RO         2025    .text               tcp_fsm.o
    0x0800c6e4   0x000012fc   Code   RO         2037    .text               tcp_misc.o
    0x0800d9e0   0x000002d0   Code   RO         2049    .text               tcp_timer.o
    0x0800dcb0   0x00000644   Code   RO         2064    .text               udp.o
    0x0800e2f4   0x00000760   Code   RO         2095    .text               socket.o
    0x0800ea54   0x000001e4   Code   RO         2144    .text               dns_cache.o
    0x0800ec38   0x000005ec   Code   RO         2163    .text               dns_client.o
    0x0800f224   0x000002f2   Code   RO         2178    .text               dns_common.o
    0x0800f516   0x00000002   PAD
    0x0800f518   0x000002d4   Code   RO         2217    .text               nbns_client.o
    0x0800f7ec   0x00000186   Code   RO         2229    .text               nbns_responder.o
    0x0800f972   0x00000002   PAD
    0x0800f974   0x000002a8   Code   RO         2241    .text               nbns_common.o
    0x0800fc1c   0x00000fe8   Code   RO         2253    .text               dhcp_client.o
    0x08010c04   0x000000ae   Code   RO         2335    .text               dhcp_common.o
    0x08010cb2   0x00000002   PAD
    0x08010cb4   0x00000a40   Code   RO         2353    .text               http_server.o
    0x080116f4   0x000000f8   Code   RO         2375    .text               http_server_auth.o
    0x080117ec   0x00000990   Code   RO         2387    .text               http_server_misc.o
    0x0801217c   0x00000050   Code   RO         2401    .text               mime.o
    0x080121cc   0x00000778   Code   RO         2416    .text               ssi.o
    0x08012944   0x00000a80   Code   RO         2434    .text               smtp_client.o
    0x080133c4   0x00000692   Code   RO         2500    .text               tls.o
    0x08013a56   0x00000002   PAD
    0x08013a58   0x000000a0   Code   RO         2537    .text               tls_cipher_suites.o
    0x08013af8   0x000015ec   Code   RO         2630    .text               tls_client.o
    0x080150e4   0x00001600   Code   RO         2646    .text               tls_server.o
    0x080166e4   0x000009f2   Code   RO         2661    .text               tls_common.o
    0x080170d6   0x00000838   Code   RO         2679    .text               tls_record.o
    0x0801790e   0x0000005e   Code   RO         2710    .text               tls_io.o
    0x0801796c   0x00001538   Code   RO         2722    .text               tls_misc.o
    0x08018ea4   0x0000024c   Code   RO         2736    .text               tls_cache.o
    0x080190f0   0x00000198   Code   RO         2748    .text               ssl_common.o
    0x08019288   0x000001e0   Code   RO         2766    .text               base64.o
    0x08019468   0x00000a34   Code   RO         2780    .text               md5.o
    0x08019e9c   0x000002d8   Code   RO         2799    .text               sha1.o
    0x0801a174   0x000000b8   Code   RO         2818    .text               sha224.o
    0x0801a22c   0x0000032c   Code   RO         2837    .text               sha256.o
    0x0801a558   0x00000100   Code   RO         2856    .text               sha384.o
    0x0801a658   0x0000056c   Code   RO         2875    .text               sha512.o
    0x0801abc4   0x0000015e   Code   RO         2894    .text               hmac.o
    0x0801ad22   0x000000b8   Code   RO         2912    .text               rc4.o
    0x0801adda   0x00000002   PAD
    0x0801addc   0x0000068c   Code   RO         2950    .text               des.o
    0x0801b468   0x000000e4   Code   RO         2969    .text               des3.o
    0x0801b54c   0x00000a2c   Code   RO         2992    .text               aes.o
    0x0801bf78   0x0000079c   Code   RO         3011    .text               camellia.o
    0x0801c714   0x000000ca   Code   RO         3068    .text               cipher_mode_cbc.o
    0x0801c7de   0x0000048e   Code   RO         3080    .text               cipher_mode_ccm.o
    0x0801cc6c   0x00000504   Code   RO         3092    .text               cipher_mode_gcm.o
    0x0801d170   0x00000182   Code   RO         3149    .text               dh.o
    0x0801d2f2   0x00000782   Code   RO         3161    .text               rsa.o
    0x0801da74   0x000005cc   Code   RO         3182    .text               dsa.o
    0x0801e040   0x000011c6   Code   RO         3200    .text               ec.o
    0x0801f206   0x00000002   PAD
    0x0801f208   0x00000ee8   Code   RO         3218    .text               ec_curves.o
    0x080200f0   0x000001a8   Code   RO         3237    .text               ecdh.o
    0x08020298   0x00000582   Code   RO         3249    .text               ecdsa.o
    0x0802081a   0x00000002   PAD
    0x0802081c   0x00001338   Code   RO         3267    .text               mpi.o
    0x08021b54   0x00000386   Code   RO         3279    .text               asn1.o
    0x08021eda   0x00000002   PAD
    0x08021edc   0x000002d0   Code   RO         3291    .text               oid.o
    0x080221ac   0x00001354   Code   RO         3304    .text               x509.o
    0x08023500   0x00001048   Code   RO         3322    .text               pem.o
    0x08024548   0x000002ec   Code   RO         3334    .text               yarrow.o
    0x08024834   0x000000e0   Code   RO         3358    .text               port.o
    0x08024914   0x00000094   Code   RO         3384    .text               list.o
    0x080249a8   0x0000064a   Code   RO         3396    .text               queue.o
    0x08024ff2   0x00000002   PAD
    0x08024ff4   0x000012f8   Code   RO         3408    .text               tasks.o
    0x080262ec   0x0000002e   Code   RO         3436    .text               heap_3.o
    0x0802631a   0x00000002   PAD
    0x0802631c   0x000006a8   Code   RO         3451    .text               stm322xg_eval.o
    0x080269c4   0x00000ddc   Code   RO         3507    .text               stm322xg_eval_ioe.o
    0x080277a0   0x000012f8   Code   RO         3534    .text               stm322xg_eval_lcd.o
    0x08028a98   0x000000e0   Code   RO         3568    .text               misc.o
    0x08028b78   0x00000464   Code   RO         3592    .text               stm32f2xx_adc.o
    0x08028fdc   0x000003a8   Code   RO         3832    .text               stm32f2xx_dma.o
    0x08029384   0x0000011c   Code   RO         3856    .text               stm32f2xx_exti.o
    0x080294a0   0x00000608   Code   RO         3904    .text               stm32f2xx_fsmc.o
    0x08029aa8   0x0000024c   Code   RO         3928    .text               stm32f2xx_gpio.o
    0x08029cf4   0x00000428   Code   RO         4024    .text               stm32f2xx_i2c.o
    0x0802a11c   0x00000588   Code   RO         4096    .text               stm32f2xx_rcc.o
    0x0802a6a4   0x000000a0   Code   RO         4122    .text               stm32f2xx_rng.o
    0x0802a744   0x000001dc   Code   RO         4170    .text               stm32f2xx_sdio.o
    0x0802a920   0x0000008c   Code   RO         4218    .text               stm32f2xx_syscfg.o
    0x0802a9ac   0x0000041a   Code   RO         4266    .text               stm32f2xx_usart.o
    0x0802adc6   0x00000002   Code   RO         4313    .text               c_w.l(use_no_semi.o)
    0x0802adc8   0x00000010   Code   RO         4315    .text               c_w.l(rt_ctype_table.o)
    0x0802add8   0x0000005e   Code   RO         4321    .text               c_w.l(h1_alloc.o)
    0x0802ae36   0x0000004e   Code   RO         4323    .text               c_w.l(h1_free.o)
    0x0802ae84   0x0000001a   Code   RO         4379    .text               c_w.l(tolower.o)
    0x0802ae9e   0x0000001e   Code   RO         4381    .text               c_w.l(toupper.o)
    0x0802aebc   0x00000018   Code   RO         4383    .text               c_w.l(__2printf.o)
    0x0802aed4   0x00000014   Code   RO         4385    .text               c_w.l(__2fprintf.o)
    0x0802aee8   0x0000002c   Code   RO         4387    .text               c_w.l(__2sprintf.o)
    0x0802af14   0x0000004e   Code   RO         4397    .text               c_w.l(_printf_pad.o)
    0x0802af62   0x00000052   Code   RO         4399    .text               c_w.l(_printf_str.o)
    0x0802afb4   0x00000078   Code   RO         4401    .text               c_w.l(_printf_dec.o)
    0x0802b02c   0x00000058   Code   RO         4406    .text               c_w.l(_printf_hex_int.o)
    0x0802b084   0x00000138   Code   RO         4436    .text               c_w.l(__printf_flags_wp.o)
    0x0802b1bc   0x0000001a   Code   RO         4449    .text               c_w.l(atoi.o)
    0x0802b1d6   0x00000072   Code   RO         4451    .text               c_w.l(strtoul.o)
    0x0802b248   0x00000004   Code   RO         4453    .text               c_w.l(strtok_r.o)
    0x0802b24c   0x00000014   Code   RO         4455    .text               c_w.l(strchr.o)
    0x0802b260   0x00000058   Code   RO         4457    .text               c_w.l(memcmp.o)
    0x0802b2b8   0x00000048   Code   RO         4459    .text               c_w.l(strcpy.o)
    0x0802b300   0x00000032   Code   RO         4461    .text               c_w.l(strncasecmp.o)
    0x0802b332   0x0000002a   Code   RO         4463    .text               c_w.l(strcasecmp.o)
    0x0802b35c   0x00000016   Code   RO         4465    .text               c_w.l(strrchr.o)
    0x0802b372   0x0000003e   Code   RO         4467    .text               c_w.l(strlen.o)
    0x0802b3b0   0x00000096   Code   RO         4469    .text               c_w.l(strncmp.o)
    0x0802b446   0x00000018   Code   RO         4471    .text               c_w.l(strcat.o)
    0x0802b45e   0x0000008a   Code   RO         4473    .text               c_w.l(rt_memcpy_v6.o)
    0x0802b4e8   0x00000084   Code   RO         4475    .text               c_w.l(rt_memmove_v6.o)
    0x0802b56c   0x00000064   Code   RO         4477    .text               c_w.l(rt_memcpy_w.o)
    0x0802b5d0   0x00000010   Code   RO         4479    .text               c_w.l(aeabi_memset.o)
    0x0802b5e0   0x00000044   Code   RO         4481    .text               c_w.l(rt_memclr.o)
    0x0802b624   0x0000004e   Code   RO         4483    .text               c_w.l(rt_memclr_w.o)
    0x0802b672   0x00000056   Code   RO         4485    .text               c_w.l(strncpy.o)
    0x0802b6c8   0x00000080   Code   RO         4487    .text               c_w.l(strcmpv7m.o)
    0x0802b748   0x00000008   Code   RO         4507    .text               c_w.l(rt_heap_descriptor_intlibspace.o)
    0x0802b750   0x00000008   Code   RO         4512    .text               c_w.l(rt_locale_intlibspace.o)
    0x0802b758   0x00000008   Code   RO         4517    .text               c_w.l(rt_errno_addr_intlibspace.o)
    0x0802b760   0x00000004   Code   RO         4519    .text               c_w.l(hguard.o)
    0x0802b764   0x0000008a   Code   RO         4521    .text               c_w.l(init_alloc.o)
    0x0802b7ee   0x0000000e   Code   RO         4525    .text               c_w.l(h1_init.o)
    0x0802b7fc   0x000000b2   Code   RO         4539    .text               c_w.l(_printf_intcommon.o)
    0x0802b8ae   0x00000002   PAD
    0x0802b8b0   0x00000030   Code   RO         4541    .text               c_w.l(_printf_char_common.o)
    0x0802b8e0   0x0000000a   Code   RO         4543    .text               c_w.l(_sputc.o)
    0x0802b8ea   0x0000002c   Code   RO         4545    .text               c_w.l(_printf_char.o)
    0x0802b916   0x00000002   PAD
    0x0802b918   0x00000024   Code   RO         4547    .text               c_w.l(_printf_char_file.o)
    0x0802b93c   0x0000009e   Code   RO         4550    .text               c_w.l(_strtoul.o)
    0x0802b9da   0x00000070   Code   RO         4552    .text               c_w.l(strtol.o)
    0x0802ba4a   0x00000002   PAD
    0x0802ba4c   0x00000044   Code   RO         4557    .text               c_w.l(strtok_int.o)
    0x0802ba90   0x0000007a   Code   RO         4559    .text               c_w.l(rt_memmove_w.o)
    0x0802bb0a   0x00000034   Code   RO         4642    .text               c_w.l(h1_extend.o)
    0x0802bb3e   0x0000001c   Code   RO         4648    .text               c_w.l(_chval.o)
    0x0802bb5a   0x0000000e   Code   RO         4650    .text               c_w.l(defsig_rtmem_outer.o)
    0x0802bb68   0x00000020   Code   RO         4654    .text               c_w.l(strcspn.o)
    0x0802bb88   0x0000001c   Code   RO         4656    .text               c_w.l(strspn.o)
    0x0802bba4   0x00000012   Code   RO         4674    .text               c_w.l(exit.o)
    0x0802bbb6   0x0000000a   Code   RO         4676    .text               c_w.l(defsig_exit.o)
    0x0802bbc0   0x00000050   Code   RO         4678    .text               c_w.l(defsig_rtmem_inner.o)
    0x0802bc10   0x00000032   Code   RO         4700    .text               c_w.l(defsig_general.o)
    0x0802bc42   0x0000000e   Code   RO         4434    i._is_digit         c_w.l(__printf_wp.o)
    0x0802bc50   0x0000002c   Code   RO         4555    locale$$code        c_w.l(lc_ctype_c.o)
    0x0802bc7c   0x00000018   Code   RO         4608    x$fpl$dcmpinf       fz_ws.l(dcmpi.o)
    0x0802bc94   0x0000002e   Code   RO         4492    x$fpl$dflt          fz_ws.l(dflt_clz.o)
    0x0802bcc2   0x00000026   Code   RO         4491    x$fpl$dfltu         fz_ws.l(dflt_clz.o)
    0x0802bce8   0x00000078   Code   RO         4497    x$fpl$dleqf         fz_ws.l(dleqf.o)
    0x0802bd60   0x0000009c   Code   RO         4610    x$fpl$dnaninf       fz_ws.l(dnaninf.o)
    0x0802bdfc   0x0000006c   Code   RO         4499    x$fpl$drleqf        fz_ws.l(drleqf.o)
    0x0802be68   0x00000000   Code   RO         4612    x$fpl$usenofp       fz_ws.l(usenofp.o)
    0x0802be68   0x00030f64   Data   RO          587    .constdata          res.o
    0x0805cdcc   0x0000000c   Data   RO          636    .constdata          ext_int_driver.o
    0x0805cdd8   0x000000d2   Data   RO          807    .constdata          date_time.o
    0x0805ceaa   0x00000002   PAD
    0x0805ceac   0x00000040   Data   RO         1007    .constdata          stm32f2x7_eth.o
    0x0805ceec   0x00000014   Data   RO         1039    .constdata          dp83848.o
    0x0805cf00   0x00000054   Data   RO         1141    .constdata          ethernet.o
    0x0805cf54   0x00000060   Data   RO         1572    .constdata          ipv6.o
    0x0805cfb4   0x00000028   Data   RO         1953    .constdata          ip.o
    0x0805cfdc   0x00000007   Data   RO         2254    .constdata          dhcp_client.o
    0x0805cfe3   0x00000115   Data   RO         2354    .constdata          http_server.o
    0x0805d0f8   0x000001f0   Data   RO         2388    .constdata          http_server_misc.o
    0x0805d2e8   0x00000191   Data   RO         2402    .constdata          mime.o
    0x0805d479   0x00000003   PAD
    0x0805d47c   0x00000adc   Data   RO         2538    .constdata          tls_cipher_suites.o
    0x0805df58   0x00000060   Data   RO         2749    .constdata          ssl_common.o
    0x0805dfb8   0x000000c0   Data   RO         2767    .constdata          base64.o
    0x0805e078   0x00000170   Data   RO         2781    .constdata          md5.o
    0x0805e1e8   0x00000080   Data   RO         2800    .constdata          sha1.o
    0x0805e268   0x00000034   Data   RO         2819    .constdata          sha224.o
    0x0805e29c   0x00000174   Data   RO         2838    .constdata          sha256.o
    0x0805e410   0x00000034   Data   RO         2857    .constdata          sha384.o
    0x0805e444   0x00000004   PAD
    0x0805e448   0x00000334   Data   RO         2876    .constdata          sha512.o
    0x0805e77c   0x00000024   Data   RO         2913    .constdata          rc4.o
    0x0805e7a0   0x00000824   Data   RO         2951    .constdata          des.o
    0x0805efc4   0x00000024   Data   RO         2970    .constdata          des3.o
    0x0805efe8   0x00000a50   Data   RO         2993    .constdata          aes.o
    0x0805fa38   0x00000544   Data   RO         3012    .constdata          camellia.o
    0x0805ff7c   0x00000062   Data   RO         3162    .constdata          rsa.o
    0x0805ffde   0x00000056   Data   RO         3183    .constdata          dsa.o
    0x08060034   0x00000007   Data   RO         3201    .constdata          ec.o
    0x0806003b   0x00000001   PAD
    0x0806003c   0x00002770   Data   RO         3219    .constdata          ec_curves.o
    0x080627ac   0x0000004b   Data   RO         3250    .constdata          ecdsa.o
    0x080627f7   0x0000005a   Data   RO         3305    .constdata          x509.o
    0x08062851   0x00000003   PAD
    0x08062854   0x0000001c   Data   RO         3335    .constdata          yarrow.o
    0x08062870   0x00000050   Data   RO         3453    .constdata          stm322xg_eval.o
    0x080628c0   0x000029d0   Data   RO         3535    .constdata          stm322xg_eval_lcd.o
    0x08065290   0x00000028   Data   RO         4407    .constdata          c_w.l(_printf_hex_int.o)
    0x080652b8   0x00000011   Data   RO         4437    .constdata          c_w.l(__printf_flags_wp.o)
    0x080652c9   0x00000003   PAD
    0x080652cc   0x00000060   Data   RO         2255    .conststring        dhcp_client.o
    0x0806532c   0x000003cd   Data   RO         2403    .conststring        mime.o
    0x080656f9   0x00000003   PAD
    0x080656fc   0x00000b4d   Data   RO         2539    .conststring        tls_cipher_suites.o
    0x08066249   0x00000003   PAD
    0x0806624c   0x00000028   Data   RO         2723    .conststring        tls_misc.o
    0x08066274   0x00000004   Data   RO         2782    .conststring        md5.o
    0x08066278   0x00000006   Data   RO         2801    .conststring        sha1.o
    0x0806627e   0x00000002   PAD
    0x08066280   0x00000008   Data   RO         2820    .conststring        sha224.o
    0x08066288   0x00000008   Data   RO         2839    .conststring        sha256.o
    0x08066290   0x00000008   Data   RO         2858    .conststring        sha384.o
    0x08066298   0x00000008   Data   RO         2877    .conststring        sha512.o
    0x080662a0   0x00000004   Data   RO         2914    .conststring        rc4.o
    0x080662a4   0x00000004   Data   RO         2952    .conststring        des.o
    0x080662a8   0x00000005   Data   RO         2971    .conststring        des3.o
    0x080662ad   0x00000003   PAD
    0x080662b0   0x00000004   Data   RO         2994    .conststring        aes.o
    0x080662b4   0x00000009   Data   RO         3013    .conststring        camellia.o
    0x080662bd   0x00000003   PAD
    0x080662c0   0x00000122   Data   RO         3220    .conststring        ec_curves.o
    0x080663e2   0x00000002   PAD
    0x080663e4   0x00000007   Data   RO         3336    .conststring        yarrow.o
    0x080663eb   0x00000001   PAD
    0x080663ec   0x00000020   Data   RO         4750    Region$$Table       anon$$obj.o
    0x0806640c   0x00000110   Data   RO         4554    locale$$data        c_w.l(lc_ctype_c.o)


    Execution Region RW_IRAM1 (Base: 0x20000000, Size: 0x0000b8b0, Max: 0x0001f000, ABSOLUTE, COMPRESSED[0x00000088])

    Base Addr    Size         Type   Attr      Idx    E Section Name        Object

    0x20000000   0x00000014   Data   RW           15    .data               system_stm32f2xx.o
    0x20000014   0x0000000c   Data   RW          171    .data               retarget.o
    0x20000020   0x00000018   Data   RW          200    .data               main.o
    0x20000038   0x0000001c   Data   RW          882    .data               net.o
    0x20000054   0x0000000c   Data   RW         1008    .data               stm32f2x7_eth.o
    0x20000060   0x00000004   Data   RW         1057    .data               nic.o
    0x20000064   0x00000004   Data   RW         1239    .data               arp.o
    0x20000068   0x00000004   Data   RW         1446    .data               ipv4_frag.o
    0x2000006c   0x00000004   Data   RW         1553    .data               igmp.o
    0x20000070   0x00000004   Data   RW         1683    .data               ipv6_frag.o
    0x20000074   0x00000004   Data   RW         1816    .data               mld.o
    0x20000078   0x00000004   Data   RW         1834    .data               ndp.o
    0x2000007c   0x00000001   Data   RW         1954    .data               ip.o
    0x2000007d   0x00000003   PAD
    0x20000080   0x00000006   Data   RW         2000    .data               tcp.o
    0x20000086   0x00000002   PAD
    0x20000088   0x00000008   Data   RW         2066    .data               udp.o
    0x20000090   0x00000004   Data   RW         2146    .data               dns_cache.o
    0x20000094   0x00000028   Data   RW         2256    .data               dhcp_client.o
    0x200000bc   0x00000014   Data   RW         2724    .data               tls_misc.o
    0x200000d0   0x00000004   Data   RW         3359    .data               port.o
    0x200000d4   0x0000003c   Data   RW         3410    .data               tasks.o
    0x20000110   0x0000002c   Data   RW         3454    .data               stm322xg_eval.o
    0x2000013c   0x00000014   Data   RW         3508    .data               stm322xg_eval_ioe.o
    0x20000150   0x00000028   Data   RW         3536    .data               stm322xg_eval_lcd.o
    0x20000178   0x00000010   Data   RW         4097    .data               stm32f2xx_rcc.o
    0x20000188   0x00001fc8   Zero   RW          199    .bss                main.o
    0x20002150   0x00000040   Zero   RW          806    .bss                date_time.o
    0x20002190   0x00000c34   Zero   RW          881    .bss                net.o
    0x20002dc4   0x00003720   Zero   RW         1006    .bss                stm32f2x7_eth.o
    0x200064e4   0x0000002a   Zero   RW         1140    .bss                ethernet.o
    0x2000650e   0x00000010   Zero   RW         1356    .bss                ipv4.o
    0x2000651e   0x00000028   Zero   RW         1571    .bss                ipv6.o
    0x20006546   0x00000002   PAD
    0x20006548   0x000000a0   Zero   RW         2065    .bss                udp.o
    0x200065e8   0x00004980   Zero   RW         2096    .bss                socket.o
    0x2000af68   0x000003a0   Zero   RW         2145    .bss                dns_cache.o
    0x2000b308   0x00000040   Zero   RW         3292    .bss                oid.o
    0x2000b348   0x000000c8   Zero   RW         3409    .bss                tasks.o
    0x2000b410   0x0000003c   Zero   RW         3452    .bss                stm322xg_eval.o
    0x2000b44c   0x00000060   Zero   RW         4616    .bss                c_w.l(libspace.o)
    0x2000b4ac   0x00000004   PAD
    0x2000b4b0   0x00000400   Zero   RW            3    STACK               startup_stm32f2xx.o


    Execution Region ARM_LIB_STACK (Base: 0x2001f000, Size: 0x00001000, Max: 0x00001000, ABSOLUTE)

    Base Addr    Size         Type   Attr      Idx    E Section Name        Object

    0x2001f000   0x00001000   Zero   RW            1    ARM_LIB_STACK.bss   anon$$obj.o


    Execution Region ARM_LIB_HEAP (Base: 0x64100000, Size: 0x00100000, Max: 0x00100000, ABSOLUTE)

    Base Addr    Size         Type   Attr      Idx    E Section Name        Object

    0x64100000   0x00100000   Zero   RW            2    ARM_LIB_HEAP.bss    anon$$obj.o


==============================================================================

Image component sizes


      Code (inc. data)   RO Data    RW Data    ZI Data      Debug   Object Name

      2604         32       2644          0          0       3730   aes.o
      1820         12          0          4          0      31828   arp.o
       902          0          0          0          0       4153   asn1.o
       480         10        192          0          0       2204   base64.o
      1948         46       1357          0          0       4994   camellia.o
       202          0          0          0          0       2032   cipher_mode_cbc.o
      1166          0          0          0          0       3866   cipher_mode_ccm.o
      1284          0          0          0          0       4199   cipher_mode_gcm.o
       840        138        210          0         64       4165   date_time.o
       304         32          0          0          0       2924   debug.o
      1676         34       2088          0          0       5602   des.o
       228          0         41          0          0       2954   des3.o
       386          0          0          0          0       2573   dh.o
      4072        416        103         40          0      25016   dhcp_client.o
       174          0          0          0          0       1806   dhcp_common.o
       484          6          0          4        928       3917   dns_cache.o
      1516        214          0          0          0       3621   dns_client.o
       754          0          0          0          0       3858   dns_common.o
         0          0          0          0          0        948   dns_debug.o
       424         44         20          0          0       3151   dp83848.o
      1484          0         86          0          0       6201   dsa.o
      4550          0          7          0          0      10955   ec.o
      3816        178      10386          0          0      10930   ec_curves.o
       424          0          0          0          0       2579   ecdh.o
      1410          0         75          0          0       5529   ecdsa.o
       584          6          0          0          0       1653   endian.o
      1556        100         84          0         42      22766   ethernet.o
       340         26         12          0          0      61797   ext_int_driver.o
        46          0          0          0          0        805   heap_3.o
       350          0          0          0          0       3024   hmac.o
      2624        536        277          0          0       6437   http_server.o
       248         12          0          0          0       2405   http_server_auth.o
      2448        602        496          0          0       6837   http_server_misc.o
       584          0          0          0          0       3662   icmp.o
      1094          4          0          0          0       5713   icmpv6.o
      1312        202          0          4          0       6432   igmp.o
       948         14         40          1          0       6417   ip.o
      2520         36          0          0         16      32327   ipv4.o
      1158          0          0          4          0      22900   ipv4_frag.o
      4096         40         96          0         40      36846   ipv6.o
      1394          0          0          4          0      23367   ipv6_frag.o
      2280         30          0          0          0      11133   ipv6_misc.o
        68          0          0          0          0       1559   ipv6_pmtu.o
       212         48          0          0          0       2399   lis302dl.o
       148          0          0          0          0       1930   list.o
      4628       1610          0         24       8136     117213   main.o
      2612         16        372          0          0       4286   md5.o
        80          8       1374          0          0       1442   mime.o
       224         20          0          0          0       1961   misc.o
      1212         92          0          4          0       6263   mld.o
      4920         18          0          0          0      17203   mpi.o
       724         10          0          0          0       2816   nbns_client.o
       680          0          0          0          0       3679   nbns_common.o
       390          0          0          0          0       2408   nbns_responder.o
      4852        760          0          4          0      23711   ndp.o
       752          6          0          0          0       4112   ndp_cache.o
      1200         10          0          0          0       5607   ndp_misc.o
      2400        146          0         28       3124      23708   net.o
      1312         32          0          0          0       6133   net_mem.o
       772        240          0          4          0      21151   nic.o
       720         16          0          0         64       3991   oid.o
       572          0          0          0          0       6417   os_port_freertos.o
       936         12          0          0          0       3837   path.o
      4168        430          0          0          0       7700   pem.o
       386         30          0          4          0       4575   port.o
      1610          0          0          0          0      10125   queue.o
       184          0         40          0          0       2276   rc4.o
         0          0     200548          0          0        418   res.o
       588          6          0          0          0       2485   resource_manager.o
        40          6          0         12          0       2744   retarget.o
      1922          0         98          0          0      11095   rsa.o
       728         22        134          0          0       3672   sha1.o
       184         32         60          0          0       2685   sha224.o
       812         42        380          0          0       4084   sha256.o
       256         66         60          0          0       2685   sha384.o
      1388         74        828          0          0       4096   sha512.o
      1628        262          0          0          0       4800   slaac.o
      2688        370          0          0          0      30971   smtp_client.o
      1888         22          0          0      18816      14515   socket.o
      1912        302          0          0          0      11887   ssi.o
       408         18         96          0          0       2775   ssl_common.o
        44         10        388          0       1024        812   startup_stm32f2xx.o
      1704        140         80         44         60       6281   stm322xg_eval.o
      3548         94          0         20          0      11735   stm322xg_eval_ioe.o
      4856         62      10704         40          0      14872   stm322xg_eval_lcd.o
      2020        184         64         12      14112      32937   stm32f2x7_eth.o
      1124         24          0          0          0      10638   stm32f2xx_adc.o
       936         32          0          0          0       6485   stm32f2xx_dma.o
       284         10          0          0          0       2411   stm32f2xx_exti.o
      1544         14          0          0          0       5535   stm32f2xx_fsmc.o
       588         36          0          0          0       4133   stm32f2xx_gpio.o
      1064         26          0          0          0       8243   stm32f2xx_i2c.o
        20          0          0          0          0        939   stm32f2xx_it.o
      1416         48          0         16          0      11155   stm32f2xx_rcc.o
       160          4          0          0          0       1768   stm32f2xx_rng.o
       476         16          0          0          0       7316   stm32f2xx_sdio.o
       140         12          0          0          0       1587   stm32f2xx_syscfg.o
      1050         26          0          0          0       7852   stm32f2xx_usart.o
       238          0          0          0          0       2195   str.o
       788        102          0         20          0     294583   system_stm32f2xx.o
      4856        282          0         60        200      21878   tasks.o
      2084         60          0          6          0      12178   tcp.o
      2452         16          0          0          0       7011   tcp_fsm.o
      4860         18          0          0          0      14063   tcp_misc.o
       720          4          0          0          0       2713   tcp_timer.o
      1682          0          0          0          0      13200   tls.o
       588          4          0          0          0       2919   tls_cache.o
       160         14       5673          0          0      21376   tls_cipher_suites.o
      5612        568          0          0          0       9761   tls_client.o
      2546        414          0          0          0       7598   tls_common.o
        94          0          0          0          0       1515   tls_io.o
      5432        320         40         20          0      18300   tls_misc.o
      2104          0          0          0          0       4997   tls_record.o
      5632        464          0          0          0       9960   tls_server.o
      1604         28          0          8        160       7997   udp.o
      4948        174         90          0          0      20704   x509.o
       748          0         35          0          0       5069   yarrow.o

    ----------------------------------------------------------------------
    174886      10702     239340        392    1099460    1406386   Object Totals
         0          0         32          0    1052672          0   (incl. Generated)
        30          0         30          5          2          0   (incl. Padding)

    ----------------------------------------------------------------------

      Code (inc. data)   RO Data    RW Data    ZI Data      Debug   Library Member Name

        20          0          0          0          0         84   __2fprintf.o
        24          4          0          0          0         84   __2printf.o
        44          6          0          0          0         84   __2sprintf.o
        90          0          0          0          0          0   __dczerorl2.o
         8          0          0          0          0         68   __main.o
       312          4         17          0          0         92   __printf_flags_wp.o
        14          0          0          0          0         68   __printf_wp.o
         0          0          0          0          0          0   __rtentry.o
        12          0          0          0          0          0   __rtentry2.o
         8          4          0          0          0          0   __rtentry7.o
        52          8          0          0          0          0   __scatter.o
        28          0          0          0          0          0   __scatter_zi.o
        28          0          0          0          0         68   _chval.o
        44          0          0          0          0        108   _printf_char.o
        48          6          0          0          0         96   _printf_char_common.o
        36          4          0          0          0         80   _printf_char_file.o
         6          0          0          0          0          0   _printf_d.o
       120         16          0          0          0         92   _printf_dec.o
        88          4         40          0          0         88   _printf_hex_int.o
       178          0          0          0          0         88   _printf_intcommon.o
        78          0          0          0          0        108   _printf_pad.o
         0          0          0          0          0          0   _printf_percent.o
         4          0          0          0          0          0   _printf_percent_end.o
         6          0          0          0          0          0   _printf_s.o
        82          0          0          0          0         80   _printf_str.o
         6          0          0          0          0          0   _printf_u.o
         6          0          0          0          0          0   _printf_x.o
        10          0          0          0          0         68   _sputc.o
       158          0          0          0          0         92   _strtoul.o
        16          0          0          0          0         68   aeabi_memset.o
        26          0          0          0          0         80   atoi.o
        10          0          0          0          0         68   defsig_exit.o
        50          0          0          0          0         88   defsig_general.o
        80         58          0          0          0         76   defsig_rtmem_inner.o
        14          0          0          0          0         80   defsig_rtmem_outer.o
        18          0          0          0          0         80   exit.o
        94          0          0          0          0         80   h1_alloc.o
        52          0          0          0          0         68   h1_extend.o
        78          0          0          0          0         80   h1_free.o
        14          0          0          0          0         84   h1_init.o
         4          0          0          0          0        136   hguard.o
       138          0          0          0          0        168   init_alloc.o
        44         10        272          0          0         76   lc_ctype_c.o
         2          0          0          0          0          0   libinit.o
        20          0          0          0          0          0   libinit2.o
        16          8          0          0          0          0   libinit5.o
         2          0          0          0          0          0   libshutdown.o
         2          0          0          0          0          0   libshutdown2.o
         0          0          0          0         96          0   libspace.o
         0          0          0          0          0          0   maybetermalloc1.o
        88          0          0          0          0         76   memcmp.o
        16          4          0          0          0         76   rt_ctype_table.o
         8          4          0          0          0         68   rt_errno_addr_intlibspace.o
         8          4          0          0          0         68   rt_heap_descriptor_intlibspace.o
         8          4          0          0          0         68   rt_locale_intlibspace.o
        68          0          0          0          0         68   rt_memclr.o
        78          0          0          0          0         80   rt_memclr_w.o
       138          0          0          0          0         68   rt_memcpy_v6.o
       100          0          0          0          0         80   rt_memcpy_w.o
       132          0          0          0          0         68   rt_memmove_v6.o
       122          0          0          0          0         80   rt_memmove_w.o
         2          0          0          0          0          0   rtexit.o
        10          0          0          0          0          0   rtexit2.o
        42          0          0          0          0         84   strcasecmp.o
        24          0          0          0          0         68   strcat.o
        20          0          0          0          0         68   strchr.o
       128          0          0          0          0         68   strcmpv7m.o
        72          0          0          0          0         80   strcpy.o
        32          0          0          0          0         80   strcspn.o
        62          0          0          0          0         76   strlen.o
        50          0          0          0          0         84   strncasecmp.o
       150          0          0          0          0         80   strncmp.o
        86          0          0          0          0         76   strncpy.o
        22          0          0          0          0         68   strrchr.o
        28          0          0          0          0         80   strspn.o
        68          4          0          0          0         84   strtok_int.o
         4          0          0          0          0         68   strtok_r.o
       112          0          0          0          0         88   strtol.o
       114          0          0          0          0         92   strtoul.o
        26          0          0          0          0         76   tolower.o
        30          0          0          0          0         76   toupper.o
         2          0          0          0          0         68   use_no_semi.o
        24          0          0          0          0         68   dcmpi.o
        84          0          0          0          0        136   dflt_clz.o
       120          4          0          0          0         92   dleqf.o
       156          4          0          0          0         92   dnaninf.o
       108          0          0          0          0         80   drleqf.o
         0          0          0          0          0          0   usenofp.o

    ----------------------------------------------------------------------
      4542        160        332          0        100       5412   Library Totals
        10          0          3          0          4          0   (incl. Padding)

    ----------------------------------------------------------------------

      Code (inc. data)   RO Data    RW Data    ZI Data      Debug   Library Name

      4040        152        329          0         96       4944   c_w.l
       492          8          0          0          0        468   fz_ws.l

    ----------------------------------------------------------------------
      4542        160        332          0        100       5412   Library Totals

    ----------------------------------------------------------------------

==============================================================================


      Code (inc. data)   RO Data    RW Data    ZI Data      Debug   

    179428      10862     239672        392    1099560    1398378   Grand Totals
    179428      10862     239672        136    1099560    1398378   ELF Image Totals (compressed)
    179428      10862     239672        136          0          0   ROM Totals

==============================================================================

    Total RO  Size (Code + RO Data)               419100 ( 409.28kB)
    Total RW  Size (RW Data + ZI Data)           1099952 (1074.17kB)
    Total ROM Size (Code + RO Data + RW Data)     419236 ( 409.41kB)

==============================================================================

